(dp1
S'files'
p2
(dp3
S'_home_deanna_django-deanna_lib_python2_7_site-packages_Django-1_7_4-py2_7_egg_django_utils_crypto'
p4
(dp5
S'index'
p6
(dp7
S'html_filename'
p8
S'_home_deanna_django-deanna_lib_python2_7_site-packages_Django-1_7_4-py2_7_egg_django_utils_crypto.html'
p9
sS'name'
p10
S'/home/deanna/django-deanna/lib/python2.7/site-packages/Django-1.7.4-py2.7.egg/django/utils/crypto'
p11
sS'nums'
p12
ccopy_reg
_reconstructor
p13
(ccoverage.results
Numbers
p14
c__builtin__
object
p15
NtRp16
(dp17
S'n_files'
p18
I1
sS'n_branches'
p19
I0
sS'n_statements'
p20
I75
sS'n_excluded'
p21
I0
sS'n_partial_branches'
p22
I0
sS'n_missing'
p23
I53
sS'n_missing_branches'
p24
I0
sbssS'hash'
p25
S'e`\xf0c\x18.9\xa6\xd2\x08\x0e\xb1\x8fR\x11\xd0'
p26
ssS'_home_deanna_django-deanna_lib_python2_7_site-packages_lxml___init__'
p27
(dp28
S'index'
p29
(dp30
g8
S'_home_deanna_django-deanna_lib_python2_7_site-packages_lxml___init__.html'
p31
sg10
S'/home/deanna/django-deanna/lib/python2.7/site-packages/lxml/__init__'
p32
sg12
g13
(g14
g15
NtRp33
(dp34
g18
I1
sg19
I0
sg20
I10
sg21
I0
sg22
I0
sg23
I9
sg24
I0
sbssS'hash'
p35
S':a\xf1\x1a\xce\x81\t\xc7\x9c}\xe9g\xa5 \x11\\'
p36
ssS'_home_deanna_django-deanna_lib_python2_7_site-packages_tastypie_validation'
p37
(dp38
g29
(dp39
g8
S'_home_deanna_django-deanna_lib_python2_7_site-packages_tastypie_validation.html'
p40
sg10
S'/home/deanna/django-deanna/lib/python2.7/site-packages/tastypie/validation'
p41
sg12
g13
(g14
g15
NtRp42
(dp43
g18
I1
sg19
I0
sg20
I38
sg21
I0
sg22
I0
sg23
I24
sg24
I0
sbssg35
S'22l|\x18=%aJV\xb1\x92\xff\xec#\xf3'
p44
ssS'_home_deanna_django-deanna_lib_python2_7_site-packages_Django-1_7_4-py2_7_egg_django_core_serializers_xml_serializer'
p45
(dp46
g6
(dp47
S'html_filename'
p48
S'_home_deanna_django-deanna_lib_python2_7_site-packages_Django-1_7_4-py2_7_egg_django_core_serializers_xml_serializer.html'
p49
sS'name'
p50
S'/home/deanna/django-deanna/lib/python2.7/site-packages/Django-1.7.4-py2.7.egg/django/core/serializers/xml_serializer'
p51
sS'nums'
p52
g13
(g14
g15
NtRp53
(dp54
g18
I1
sg19
I0
sg20
I212
sg21
I0
sg22
I0
sg23
I165
sg24
I0
sbssg25
S'\xdbN\xdb\xbf\xc0\xf7\x93\xd9\x11z\xb5\xd1*8\xd6\xcd'
p55
ssS'_home_deanna_django-deanna_lib_python2_7_site-packages_Django-1_7_4-py2_7_egg_django_utils_decorators'
p56
(dp57
g6
(dp58
g48
S'_home_deanna_django-deanna_lib_python2_7_site-packages_Django-1_7_4-py2_7_egg_django_utils_decorators.html'
p59
sg50
S'/home/deanna/django-deanna/lib/python2.7/site-packages/Django-1.7.4-py2.7.egg/django/utils/decorators'
p60
sg52
g13
(g14
g15
NtRp61
(dp62
g18
I1
sg19
I0
sg20
I64
sg21
I0
sg22
I0
sg23
I35
sg24
I0
sbssg25
S'\xf1\xf9\x97\xddS\x82\xa0\x14\xd2\xdej7\xc0\xd1\x01\xc4'
p63
ssS'_home_deanna_django-deanna_lib_python2_7_site-packages_Django-1_7_4-py2_7_egg_django_utils_translation___init__'
p64
(dp65
g6
(dp66
g8
S'_home_deanna_django-deanna_lib_python2_7_site-packages_Django-1_7_4-py2_7_egg_django_utils_translation___init__.html'
p67
sg10
S'/home/deanna/django-deanna/lib/python2.7/site-packages/Django-1.7.4-py2.7.egg/django/utils/translation/__init__'
p68
sg12
g13
(g14
g15
NtRp69
(dp70
g18
I1
sg19
I0
sg20
I115
sg21
I0
sg22
I0
sg23
I50
sg24
I0
sbssg25
S'5\x9f\xa8q\xa9]m\xff@Q\x17\xb2\xb2bq4'
p71
ssS'_home_deanna_django-deanna_lib_python2_7_site-packages_Django-1_7_4-py2_7_egg_django_contrib_messages_storage_base'
p72
(dp73
g29
(dp74
g8
S'_home_deanna_django-deanna_lib_python2_7_site-packages_Django-1_7_4-py2_7_egg_django_contrib_messages_storage_base.html'
p75
sg10
S'/home/deanna/django-deanna/lib/python2.7/site-packages/Django-1.7.4-py2.7.egg/django/contrib/messages/storage/base'
p76
sg12
g13
(g14
g15
NtRp77
(dp78
g18
I1
sg19
I0
sg20
I84
sg21
I0
sg22
I0
sg23
I47
sg24
I0
sbssg35
S'\x05\x94\xa5\x19kl-r\x89\xdd\x11\x83|\x82ac'
p79
ssS'_home_deanna_django-deanna_lib_python2_7_site-packages_Django-1_7_4-py2_7_egg_django_utils_datastructures'
p80
(dp81
g6
(dp82
g8
S'_home_deanna_django-deanna_lib_python2_7_site-packages_Django-1_7_4-py2_7_egg_django_utils_datastructures.html'
p83
sg10
S'/home/deanna/django-deanna/lib/python2.7/site-packages/Django-1.7.4-py2.7.egg/django/utils/datastructures'
p84
sg12
g13
(g14
g15
NtRp85
(dp86
g18
I1
sg19
I0
sg20
I317
sg21
I0
sg22
I0
sg23
I185
sg24
I0
sbssg25
S'RY!\xcaW\x08\\\t\xeb\rq\x97?\xb5tR'
p87
ssS'_home_deanna_django-deanna_lib_python2_7_site-packages_Django-1_7_4-py2_7_egg_django_conf___init__'
p88
(dp89
g6
(dp90
g48
S'_home_deanna_django-deanna_lib_python2_7_site-packages_Django-1_7_4-py2_7_egg_django_conf___init__.html'
p91
sg50
S'/home/deanna/django-deanna/lib/python2.7/site-packages/Django-1.7.4-py2.7.egg/django/conf/__init__'
p92
sg52
g13
(g14
g15
NtRp93
(dp94
g18
I1
sg19
I0
sg20
I88
sg21
I0
sg22
I0
sg23
I30
sg24
I0
sbssg25
S'\xe5\xbd\xe0\xd5U\xec\xc3\x00/q\xc1%]y\xaa\x90'
p95
ssS'_home_deanna_django-deanna_lib_python2_7_site-packages_Django-1_7_4-py2_7_egg_django_core_files_storage'
p96
(dp97
g6
(dp98
g48
S'_home_deanna_django-deanna_lib_python2_7_site-packages_Django-1_7_4-py2_7_egg_django_core_files_storage.html'
p99
sg50
S'/home/deanna/django-deanna/lib/python2.7/site-packages/Django-1.7.4-py2.7.egg/django/core/files/storage'
p100
sg52
g13
(g14
g15
NtRp101
(dp102
g18
I1
sg19
I0
sg20
I153
sg21
I0
sg22
I0
sg23
I105
sg24
I0
sbssg25
S'\xd1\xa8T\x18\\\x92\xa04\x119\xdf\x11{\xe4\x07\x9a'
p103
ssS'_home_deanna_django-deanna_lib_python2_7_site-packages_Django-1_7_4-py2_7_egg_django_utils_version'
p104
(dp105
g6
(dp106
g48
S'_home_deanna_django-deanna_lib_python2_7_site-packages_Django-1_7_4-py2_7_egg_django_utils_version.html'
p107
sg50
S'/home/deanna/django-deanna/lib/python2.7/site-packages/Django-1.7.4-py2.7.egg/django/utils/version'
p108
sg52
g13
(g14
g15
NtRp109
(dp110
g18
I1
sg19
I0
sg20
I29
sg21
I0
sg22
I0
sg23
I15
sg24
I0
sbssg25
S'J-1Z\xb98\x042\xf7\xf3\xbdf\xfcf\x03\xc5'
p111
ssS'_home_deanna_django-deanna_lib_python2_7_site-packages_Django-1_7_4-py2_7_egg_django_contrib_auth_backends'
p112
(dp113
g29
(dp114
g8
S'_home_deanna_django-deanna_lib_python2_7_site-packages_Django-1_7_4-py2_7_egg_django_contrib_auth_backends.html'
p115
sg10
S'/home/deanna/django-deanna/lib/python2.7/site-packages/Django-1.7.4-py2.7.egg/django/contrib/auth/backends'
p116
sg12
g13
(g14
g15
NtRp117
(dp118
g18
I1
sg19
I0
sg20
I71
sg21
I0
sg22
I0
sg23
I56
sg24
I0
sbssg35
S'\xad\xe9iLb\xad\x06\xef\xab={G`>\x1a\xd6'
p119
ssS'_home_deanna_django-deanna_lib_python2_7_site-packages_Django-1_7_4-py2_7_egg_django_contrib_admin_actions'
p120
(dp121
g6
(dp122
g48
S'_home_deanna_django-deanna_lib_python2_7_site-packages_Django-1_7_4-py2_7_egg_django_contrib_admin_actions.html'
p123
sg50
S'/home/deanna/django-deanna/lib/python2.7/site-packages/Django-1.7.4-py2.7.egg/django/contrib/admin/actions'
p124
sg52
g13
(g14
g15
NtRp125
(dp126
g18
I1
sg19
I0
sg20
I35
sg21
I0
sg22
I0
sg23
I25
sg24
I0
sbssg25
S'\xcc\x93\xc3\x97\t\xc6\x93\x92\xd6hxd|\xe2|\xb1'
p127
ssS'_home_deanna_django-deanna_lib_python2_7_site-packages_Django-1_7_4-py2_7_egg_django_db_models_fields___init__'
p128
(dp129
g6
(dp130
g8
S'_home_deanna_django-deanna_lib_python2_7_site-packages_Django-1_7_4-py2_7_egg_django_db_models_fields___init__.html'
p131
sg10
S'/home/deanna/django-deanna/lib/python2.7/site-packages/Django-1.7.4-py2.7.egg/django/db/models/fields/__init__'
p132
sg12
g13
(g14
g15
NtRp133
(dp134
g18
I1
sg19
I0
sg20
I1138
sg21
I0
sg22
I0
sg23
I520
sg24
I0
sbssg25
S'\xe65\xe1\xbc\x1a\xb9%\x13a\xf4\x01\xa5U\xc2Q-'
p135
ssS'_home_deanna_django-deanna_lib_python2_7_site-packages_Django-1_7_4-py2_7_egg_django_contrib_admin_templatetags_admin_static'
p136
(dp137
g6
(dp138
g48
S'_home_deanna_django-deanna_lib_python2_7_site-packages_Django-1_7_4-py2_7_egg_django_contrib_admin_templatetags_admin_static.html'
p139
sg50
S'/home/deanna/django-deanna/lib/python2.7/site-packages/Django-1.7.4-py2.7.egg/django/contrib/admin/templatetags/admin_static'
p140
sg52
g13
(g14
g15
NtRp141
(dp142
g18
I1
sg19
I0
sg20
I10
sg21
I0
sg22
I0
sg23
I5
sg24
I0
sbssg25
S'\x98M\x80^\x84\xdd\xa3\xcf\x85\x10\x1b*\xb6\xd9\xed\x12'
p143
ssS'_home_deanna_django-deanna_lib_python2_7_site-packages_Django-1_7_4-py2_7_egg_django_db_models_sql_where'
p144
(dp145
g6
(dp146
g48
S'_home_deanna_django-deanna_lib_python2_7_site-packages_Django-1_7_4-py2_7_egg_django_db_models_sql_where.html'
p147
sg50
S'/home/deanna/django-deanna/lib/python2.7/site-packages/Django-1.7.4-py2.7.egg/django/db/models/sql/where'
p148
sg52
g13
(g14
g15
NtRp149
(dp150
g18
I1
sg19
I0
sg20
I236
sg21
I0
sg22
I0
sg23
I157
sg24
I0
sbssg25
S'\xca\x0c\xf2\t\xa7|l\x02\xcd\x8c\xe7\xaa\xac|\x04W'
p151
ssS'_home_deanna_django-deanna_lib_python2_7_site-packages_Django-1_7_4-py2_7_egg_django_template_debug'
p152
(dp153
g29
(dp154
g8
S'_home_deanna_django-deanna_lib_python2_7_site-packages_Django-1_7_4-py2_7_egg_django_template_debug.html'
p155
sg10
S'/home/deanna/django-deanna/lib/python2.7/site-packages/Django-1.7.4-py2.7.egg/django/template/debug'
p156
sg12
g13
(g14
g15
NtRp157
(dp158
g18
I1
sg19
I0
sg20
I81
sg21
I0
sg22
I0
sg23
I21
sg24
I0
sbssg35
S'\x95n\x7f\x00\x90\x10\x15\x1e\xec\xf1\xcd-\x82H\xc2q'
p159
ssS'_home_deanna_django-deanna_lib_python2_7_site-packages_Django-1_7_4-py2_7_egg_django_contrib_sessions_apps'
p160
(dp161
g6
(dp162
g48
S'_home_deanna_django-deanna_lib_python2_7_site-packages_Django-1_7_4-py2_7_egg_django_contrib_sessions_apps.html'
p163
sg50
S'/home/deanna/django-deanna/lib/python2.7/site-packages/Django-1.7.4-py2.7.egg/django/contrib/sessions/apps'
p164
sg52
g13
(g14
g15
NtRp165
(dp166
g18
I1
sg19
I0
sg20
I5
sg21
I0
sg22
I0
sg23
I0
sg24
I0
sbssg25
S'\xe9\xb9\xdeKDm\xd7D\x86x\x1e\x01\xa4a\xf19'
p167
ssS'_home_deanna_django-deanna_lib_python2_7_site-packages_Django-1_7_4-py2_7_egg_django_template_loader'
p168
(dp169
g6
(dp170
g8
S'_home_deanna_django-deanna_lib_python2_7_site-packages_Django-1_7_4-py2_7_egg_django_template_loader.html'
p171
sg10
S'/home/deanna/django-deanna/lib/python2.7/site-packages/Django-1.7.4-py2.7.egg/django/template/loader'
p172
sg12
g13
(g14
g15
NtRp173
(dp174
g18
I1
sg19
I0
sg20
I95
sg21
I0
sg22
I0
sg23
I31
sg24
I0
sbssg25
S'\xc3\xbaX\x06hT.\xfe\xc1\x9a\xda\xa9_\x8b\x06\x8a'
p175
ssS'_home_deanna_django-deanna_lib_python2_7_site-packages_Django-1_7_4-py2_7_egg_django_contrib_messages_utils'
p176
(dp177
g29
(dp178
g8
S'_home_deanna_django-deanna_lib_python2_7_site-packages_Django-1_7_4-py2_7_egg_django_contrib_messages_utils.html'
p179
sg10
S'/home/deanna/django-deanna/lib/python2.7/site-packages/Django-1.7.4-py2.7.egg/django/contrib/messages/utils'
p180
sg12
g13
(g14
g15
NtRp181
(dp182
g18
I1
sg19
I0
sg20
I6
sg21
I0
sg22
I0
sg23
I0
sg24
I0
sbssg35
S'\xee\xe6V\xce4\x04\x08y\xc9\xf2\xff\xc9T\xbc?\xa1'
p183
ssS'_home_deanna_django-deanna_lib_python2_7_site-packages_tastypie_authentication'
p184
(dp185
g29
(dp186
g8
S'_home_deanna_django-deanna_lib_python2_7_site-packages_tastypie_authentication.html'
p187
sg10
S'/home/deanna/django-deanna/lib/python2.7/site-packages/tastypie/authentication'
p188
sg12
g13
(g14
g15
NtRp189
(dp190
g18
I1
sg19
I0
sg20
I251
sg21
I0
sg22
I0
sg23
I187
sg24
I0
sbssg35
S'\x8a\x0e\xbd\x1c\x8c\xf6\xf5L\x18\x97\xd0psiq\xb0'
p191
ssS'article_views'
p192
(dp193
g29
(dp194
g8
S'article_views.html'
p195
sg10
S'article/views'
p196
sg12
g13
(g14
g15
NtRp197
(dp198
g18
I1
sg19
I0
sg20
I68
sg21
I0
sg22
I0
sg23
I43
sg24
I0
sbssg35
S'S\xc1\xcb\xc8`\n\xe1S\x92\xa6\x1a\xf3\x85)\x13#'
p199
ssS'_home_deanna_django-deanna_lib_python2_7_site-packages_Django-1_7_4-py2_7_egg_django_db_utils'
p200
(dp201
g6
(dp202
g48
S'_home_deanna_django-deanna_lib_python2_7_site-packages_Django-1_7_4-py2_7_egg_django_db_utils.html'
p203
sg50
S'/home/deanna/django-deanna/lib/python2.7/site-packages/Django-1.7.4-py2.7.egg/django/db/utils'
p204
sg52
g13
(g14
g15
NtRp205
(dp206
g18
I1
sg19
I0
sg20
I204
sg21
I0
sg22
I0
sg23
I72
sg24
I0
sbssg25
S'\xba3\xe7\xe5\xf5t\xdb\x92\t\x82\x06o\xc6\xee\xaf9'
p207
ssS'_home_deanna_django-deanna_lib_python2_7_site-packages_Django-1_7_4-py2_7_egg_django_db_migrations_recorder'
p208
(dp209
g6
(dp210
g48
S'_home_deanna_django-deanna_lib_python2_7_site-packages_Django-1_7_4-py2_7_egg_django_db_migrations_recorder.html'
p211
sg50
S'/home/deanna/django-deanna/lib/python2.7/site-packages/Django-1.7.4-py2.7.egg/django/db/migrations/recorder'
p212
sg52
g13
(g14
g15
NtRp213
(dp214
g18
I1
sg19
I0
sg20
I37
sg21
I0
sg22
I0
sg23
I4
sg24
I0
sbssg25
S'\x85\xa4PB\x15\xf3\xad\xdf\xe7w\x17\xf2{S\x8c\xce'
p215
ssS'_home_deanna_django-deanna_lib_python2_7_site-packages_Django-1_7_4-py2_7_egg_django_contrib_contenttypes_checks'
p216
(dp217
g6
(dp218
g48
S'_home_deanna_django-deanna_lib_python2_7_site-packages_Django-1_7_4-py2_7_egg_django_contrib_contenttypes_checks.html'
p219
sg50
S'/home/deanna/django-deanna/lib/python2.7/site-packages/Django-1.7.4-py2.7.egg/django/contrib/contenttypes/checks'
p220
sg52
g13
(g14
g15
NtRp221
(dp222
g18
I1
sg19
I0
sg20
I10
sg21
I0
sg22
I0
sg23
I0
sg24
I0
sbssg25
S'\x14\xd2\x8eX\xdczW2\x99i\xc0\xc8\xb1\x8d\xb4\xd9'
p223
ssS'_home_deanna_django-deanna_lib_python2_7_site-packages_tastypie___init__'
p224
(dp225
g6
(dp226
g48
S'_home_deanna_django-deanna_lib_python2_7_site-packages_tastypie___init__.html'
p227
sg50
S'/home/deanna/django-deanna/lib/python2.7/site-packages/tastypie/__init__'
p228
sg52
g13
(g14
g15
NtRp229
(dp230
g18
I1
sg19
I0
sg20
I3
sg21
I0
sg22
I0
sg23
I0
sg24
I0
sbssg25
S'x\x84\xd0~\xfc`\xe9\xbd\x81\xe0\x85\xa2T]\xe5B'
p231
ssS'_home_deanna_django-deanna_lib_python2_7_site-packages_Django-1_7_4-py2_7_egg_django_core_handlers___init__'
p232
(dp233
g6
(dp234
g48
S'_home_deanna_django-deanna_lib_python2_7_site-packages_Django-1_7_4-py2_7_egg_django_core_handlers___init__.html'
p235
sg50
S'/home/deanna/django-deanna/lib/python2.7/site-packages/Django-1.7.4-py2.7.egg/django/core/handlers/__init__'
p236
sg52
g13
(g14
g15
NtRp237
(dp238
g18
I1
sg19
I0
sg20
I0
sg21
I0
sg22
I0
sg23
I0
sg24
I0
sbssg25
S'\xca\xf5\x9f\x7f\x88\xdfa\x831|T\x1d\xbc}\xa5v'
p239
ssS'_home_deanna_django-deanna_lib_python2_7_site-packages_Django-1_7_4-py2_7_egg_django_utils__os'
p240
(dp241
g6
(dp242
g8
S'_home_deanna_django-deanna_lib_python2_7_site-packages_Django-1_7_4-py2_7_egg_django_utils__os.html'
p243
sg10
S'/home/deanna/django-deanna/lib/python2.7/site-packages/Django-1.7.4-py2.7.egg/django/utils/_os'
p244
sg12
g13
(g14
g15
NtRp245
(dp246
g18
I1
sg19
I0
sg20
I58
sg21
I0
sg22
I0
sg23
I26
sg24
I0
sbssg25
S'\xa8\xa8\xfbU\x17\x18\xf3\xd3\xea\xc7+<@!\xa3\x98'
p247
ssS'_home_deanna_django-deanna_lib_python2_7_site-packages_Django-1_7_4-py2_7_egg_django_utils_timezone'
p248
(dp249
g6
(dp250
g8
S'_home_deanna_django-deanna_lib_python2_7_site-packages_Django-1_7_4-py2_7_egg_django_utils_timezone.html'
p251
sg10
S'/home/deanna/django-deanna/lib/python2.7/site-packages/Django-1.7.4-py2.7.egg/django/utils/timezone'
p252
sg12
g13
(g14
g15
NtRp253
(dp254
g18
I1
sg19
I0
sg20
I145
sg21
I0
sg22
I0
sg23
I59
sg24
I0
sbssg25
S'\xaa\xfe\xaa7qm\xa2!\x11,\x0bJ\xa0\x90\xf1\x8e'
p255
ssS'_home_deanna_django-deanna_lib_python2_7_site-packages_Django-1_7_4-py2_7_egg_django_template_loaders_app_directories'
p256
(dp257
g29
(dp258
g8
S'_home_deanna_django-deanna_lib_python2_7_site-packages_Django-1_7_4-py2_7_egg_django_template_loaders_app_directories.html'
p259
sg10
S'/home/deanna/django-deanna/lib/python2.7/site-packages/Django-1.7.4-py2.7.egg/django/template/loaders/app_directories'
p260
sg12
g13
(g14
g15
NtRp261
(dp262
g18
I1
sg19
I0
sg20
I42
sg21
I0
sg22
I0
sg23
I4
sg24
I0
sbssg35
S'\x88\x15\x17\xd7\xd4\xf8\x03\x17Zq\xa0\xe6\xbf\x9e66'
p263
ssS'_home_deanna_django-deanna_lib_python2_7_site-packages_Django-1_7_4-py2_7_egg_django_db_backends_creation'
p264
(dp265
g6
(dp266
g48
S'_home_deanna_django-deanna_lib_python2_7_site-packages_Django-1_7_4-py2_7_egg_django_db_backends_creation.html'
p267
sg50
S'/home/deanna/django-deanna/lib/python2.7/site-packages/Django-1.7.4-py2.7.egg/django/db/backends/creation'
p268
sg52
g13
(g14
g15
NtRp269
(dp270
g18
I1
sg19
I0
sg20
I287
sg21
I0
sg22
I0
sg23
I125
sg24
I0
sbssg25
S"\xe2\x18\x1dBE\xb8:'\xfb\xe3\x13^\xc0F\xf4\x80"
p271
ssS'django_test_api'
p272
(dp273
g29
(dp274
g8
S'django_test_api.html'
p275
sg10
S'django_test/api'
p276
sg12
g13
(g14
g15
NtRp277
(dp278
g18
I1
sg19
I0
sg20
I8
sg21
I0
sg22
I0
sg23
I0
sg24
I0
sbssg35
S'fy\xfe%\x83Y\xe4\xabt\xce\xc3\xc7\x1a\xe5\x0e*'
p279
ssS'_home_deanna_django-deanna_lib_python2_7_site-packages_Django-1_7_4-py2_7_egg_django_core_cache_backends_db'
p280
(dp281
g6
(dp282
g48
S'_home_deanna_django-deanna_lib_python2_7_site-packages_Django-1_7_4-py2_7_egg_django_core_cache_backends_db.html'
p283
sg50
S'/home/deanna/django-deanna/lib/python2.7/site-packages/Django-1.7.4-py2.7.egg/django/core/cache/backends/db'
p284
sg52
g13
(g14
g15
NtRp285
(dp286
g18
I1
sg19
I0
sg20
I134
sg21
I0
sg22
I0
sg23
I109
sg24
I0
sbssg25
S'\xe8\xc5\x11e\x92\x11\xc1&\xa7\xbaj=\x9c\x10\xf8\xc9'
p287
ssS'_home_deanna_django-deanna_lib_python2_7_site-packages_Django-1_7_4-py2_7_egg_django_db_backends_utils'
p288
(dp289
g6
(dp290
g48
S'_home_deanna_django-deanna_lib_python2_7_site-packages_Django-1_7_4-py2_7_egg_django_db_backends_utils.html'
p291
sg50
S'/home/deanna/django-deanna/lib/python2.7/site-packages/Django-1.7.4-py2.7.egg/django/db/backends/utils'
p292
sg52
g13
(g14
g15
NtRp293
(dp294
g18
I1
sg19
I0
sg20
I120
sg21
I0
sg22
I0
sg23
I73
sg24
I0
sbssg25
S'\xc3\xf5\xf1\xf3qg\xdb5\x81)/\nb\xf8g\x8b'
p295
ssS'_home_deanna_django-deanna_lib_python2_7_site-packages_Django-1_7_4-py2_7_egg_django_core_files_images'
p296
(dp297
g6
(dp298
g48
S'_home_deanna_django-deanna_lib_python2_7_site-packages_Django-1_7_4-py2_7_egg_django_core_files_images.html'
p299
sg50
S'/home/deanna/django-deanna/lib/python2.7/site-packages/Django-1.7.4-py2.7.egg/django/core/files/images'
p300
sg52
g13
(g14
g15
NtRp301
(dp302
g18
I1
sg19
I0
sg20
I43
sg21
I0
sg22
I0
sg23
I34
sg24
I0
sbssg25
S'\x96\xd4\x1d\xee\xbb\x9b]\x87\x8d\xc7\x96\x0cy\xb3\x13\xf7'
p303
ssS'_home_deanna_django-deanna_lib_python2_7_site-packages_defusedxml_lxml'
p304
(dp305
g29
(dp306
g8
S'_home_deanna_django-deanna_lib_python2_7_site-packages_defusedxml_lxml.html'
p307
sg10
S'/home/deanna/django-deanna/lib/python2.7/site-packages/defusedxml/lxml'
p308
sg12
g13
(g14
g15
NtRp309
(dp310
g18
I1
sg19
I0
sg20
I87
sg21
I0
sg22
I0
sg23
I55
sg24
I0
sbssg35
S'b\xa6\xc4\xc8S\x80\xcb+Q\x07\xc8b/5\xc5\xb5'
p311
ssS'_home_deanna_django-deanna_lib_python2_7_site-packages_Django-1_7_4-py2_7_egg_django_contrib_comments_models'
p312
(dp313
g6
(dp314
g48
S'_home_deanna_django-deanna_lib_python2_7_site-packages_Django-1_7_4-py2_7_egg_django_contrib_comments_models.html'
p315
sg50
S'/home/deanna/django-deanna/lib/python2.7/site-packages/Django-1.7.4-py2.7.egg/django/contrib/comments/models'
p316
sg52
g13
(g14
g15
NtRp317
(dp318
g18
I1
sg19
I0
sg20
I102
sg21
I0
sg22
I0
sg23
I34
sg24
I0
sbssg25
S'\xae~b\xc3\xbb\xa6\x1fyjD\xea\x9b4{[\x86'
p319
ssS'_home_deanna_django-deanna_lib_python2_7_site-packages_Django-1_7_4-py2_7_egg_django_db_migrations_autodetector'
p320
(dp321
g6
(dp322
g48
S'_home_deanna_django-deanna_lib_python2_7_site-packages_Django-1_7_4-py2_7_egg_django_db_migrations_autodetector.html'
p323
sg50
S'/home/deanna/django-deanna/lib/python2.7/site-packages/Django-1.7.4-py2.7.egg/django/db/migrations/autodetector'
p324
sg52
g13
(g14
g15
NtRp325
(dp326
g18
I1
sg19
I0
sg20
I527
sg21
I0
sg22
I0
sg23
I487
sg24
I0
sbssg25
S"/K#<\xf9\xea'\xc4[\x05\x81\x91qt\xf3\xc5"
p327
ssS'_home_deanna_django-deanna_lib_python2_7_site-packages_tastypie_utils_urls'
p328
(dp329
g6
(dp330
g8
S'_home_deanna_django-deanna_lib_python2_7_site-packages_tastypie_utils_urls.html'
p331
sg10
S'/home/deanna/django-deanna/lib/python2.7/site-packages/tastypie/utils/urls'
p332
sg12
g13
(g14
g15
NtRp333
(dp334
g18
I1
sg19
I0
sg20
I6
sg21
I0
sg22
I0
sg23
I1
sg24
I0
sbssg25
S'\xbf\xbcC\x9f\xc4\xc2Q\xfd\x8a\xa7\xc2\xf8\x16\xedD\xd2'
p335
ssS'_home_deanna_django-deanna_lib_python2_7_site-packages_Django-1_7_4-py2_7_egg_django_db_migrations_questioner'
p336
(dp337
g6
(dp338
g48
S'_home_deanna_django-deanna_lib_python2_7_site-packages_Django-1_7_4-py2_7_egg_django_db_migrations_questioner.html'
p339
sg50
S'/home/deanna/django-deanna/lib/python2.7/site-packages/Django-1.7.4-py2.7.egg/django/db/migrations/questioner'
p340
sg52
g13
(g14
g15
NtRp341
(dp342
g18
I1
sg19
I0
sg20
I103
sg21
I0
sg22
I0
sg23
I77
sg24
I0
sbssg25
S'\xba+v\xc6]\xfa">7\xc2\x02\xdd\'\xc3|\xa2'
p343
ssS'_home_deanna_django-deanna_lib_python2_7_site-packages_Django-1_7_4-py2_7_egg_django_core_checks_compatibility_django_1_7_0'
p344
(dp345
g6
(dp346
g48
S'_home_deanna_django-deanna_lib_python2_7_site-packages_Django-1_7_4-py2_7_egg_django_core_checks_compatibility_django_1_7_0.html'
p347
sg50
S'/home/deanna/django-deanna/lib/python2.7/site-packages/Django-1.7.4-py2.7.egg/django/core/checks/compatibility/django_1_7_0'
p348
sg52
g13
(g14
g15
NtRp349
(dp350
g18
I1
sg19
I0
sg20
I11
sg21
I0
sg22
I0
sg23
I1
sg24
I0
sbssg25
S's\xa36\x93\xe9\x82\xe3\xfbcAm\xe9j\x1e\xcc\xfd'
p351
ssS'_home_deanna_django-deanna_lib_python2_7_site-packages_Django-1_7_4-py2_7_egg_django_contrib_auth_migrations_0001_initial'
p352
(dp353
g6
(dp354
g48
S'_home_deanna_django-deanna_lib_python2_7_site-packages_Django-1_7_4-py2_7_egg_django_contrib_auth_migrations_0001_initial.html'
p355
sg50
S'/home/deanna/django-deanna/lib/python2.7/site-packages/Django-1.7.4-py2.7.egg/django/contrib/auth/migrations/0001_initial'
p356
sg52
g13
(g14
g15
NtRp357
(dp358
g18
I1
sg19
I0
sg20
I7
sg21
I0
sg22
I0
sg23
I0
sg24
I0
sbssg25
S'\xa8J\xc1\x1d&\xe7\xd1\x0f<\xe6q\xdc\x88\x00}\xab'
p359
ssS'_home_deanna_django-deanna_lib_python2_7_site-packages_Django-1_7_4-py2_7_egg_django_utils_baseconv'
p360
(dp361
g6
(dp362
g48
S'_home_deanna_django-deanna_lib_python2_7_site-packages_Django-1_7_4-py2_7_egg_django_utils_baseconv.html'
p363
sg50
S'/home/deanna/django-deanna/lib/python2.7/site-packages/Django-1.7.4-py2.7.egg/django/utils/baseconv'
p364
sg52
g13
(g14
g15
NtRp365
(dp366
g18
I1
sg19
I0
sg20
I48
sg21
I0
sg22
I0
sg23
I25
sg24
I0
sbssg25
S'\xd5\xdfo\x02\x03\xa3\x0eD\xac^h\x99\x8e,E{'
p367
ssS'_home_deanna_django-deanna_lib_python2_7_site-packages_Django-1_7_4-py2_7_egg_django_utils_xmlutils'
p368
(dp369
g6
(dp370
g48
S'_home_deanna_django-deanna_lib_python2_7_site-packages_Django-1_7_4-py2_7_egg_django_utils_xmlutils.html'
p371
sg50
S'/home/deanna/django-deanna/lib/python2.7/site-packages/Django-1.7.4-py2.7.egg/django/utils/xmlutils'
p372
sg52
g13
(g14
g15
NtRp373
(dp374
g18
I1
sg19
I0
sg20
I9
sg21
I0
sg22
I0
sg23
I6
sg24
I0
sbssg25
S'#\x9f\x92\x9d2\xeb\xac\x95\x9a\x19\x9e\xe8\xd6 \xaf\x8c'
p375
ssS'article_migrations_0002_auto_20150203_1955'
p376
(dp377
g6
(dp378
g48
S'article_migrations_0002_auto_20150203_1955.html'
p379
sg50
S'article/migrations/0002_auto_20150203_1955'
p380
sg52
g13
(g14
g15
NtRp381
(dp382
g18
I1
sg19
I0
sg20
I5
sg21
I0
sg22
I0
sg23
I0
sg24
I0
sbssg25
S'l\xf6\xd8\xed\xa0\xab\x00\x16\xb8\xf8\xae9\x18\xec\xd0\x1b'
p383
ssS'_home_deanna_django-deanna_lib_python2_7_site-packages_Django-1_7_4-py2_7_egg_django_core_servers___init__'
p384
(dp385
g6
(dp386
g48
S'_home_deanna_django-deanna_lib_python2_7_site-packages_Django-1_7_4-py2_7_egg_django_core_servers___init__.html'
p387
sg50
S'/home/deanna/django-deanna/lib/python2.7/site-packages/Django-1.7.4-py2.7.egg/django/core/servers/__init__'
p388
sg52
g13
(g14
g15
NtRp389
(dp390
g18
I1
sg19
I0
sg20
I0
sg21
I0
sg22
I0
sg23
I0
sg24
I0
sbssg25
S'\xca\xf5\x9f\x7f\x88\xdfa\x831|T\x1d\xbc}\xa5v'
p391
ssS'_home_deanna_django-deanna_lib_python2_7_site-packages_tastypie_compat'
p392
(dp393
g6
(dp394
g48
S'_home_deanna_django-deanna_lib_python2_7_site-packages_tastypie_compat.html'
p395
sg50
S'/home/deanna/django-deanna/lib/python2.7/site-packages/tastypie/compat'
p396
sg52
g13
(g14
g15
NtRp397
(dp398
g18
I1
sg19
I0
sg20
I16
sg21
I0
sg22
I0
sg23
I8
sg24
I0
sbssg25
S'\x95y\x981\x06@1ho\x0e\xc7U\x95\x8d\x9eL'
p399
ssS'_home_deanna_django-deanna_lib_python2_7_site-packages_Django-1_7_4-py2_7_egg_django_core_management_commands_test'
p400
(dp401
g6
(dp402
g48
S'_home_deanna_django-deanna_lib_python2_7_site-packages_Django-1_7_4-py2_7_egg_django_core_management_commands_test.html'
p403
sg50
S'/home/deanna/django-deanna/lib/python2.7/site-packages/Django-1.7.4-py2.7.egg/django/core/management/commands/test'
p404
sg52
g13
(g14
g15
NtRp405
(dp406
g18
I1
sg19
I0
sg20
I46
sg21
I0
sg22
I0
sg23
I5
sg24
I0
sbssg25
S'\x96\xc7\xd3\xf4\xb2\x0c_\xf9\xb3\xc2S\r\x82\x84\x15\xa3'
p407
ssS'_home_deanna_django-deanna_lib_python2_7_site-packages_Django-1_7_4-py2_7_egg_django_db_backends___init__'
p408
(dp409
g6
(dp410
g48
S'_home_deanna_django-deanna_lib_python2_7_site-packages_Django-1_7_4-py2_7_egg_django_db_backends___init__.html'
p411
sg50
S'/home/deanna/django-deanna/lib/python2.7/site-packages/Django-1.7.4-py2.7.egg/django/db/backends/__init__'
p412
sg52
g13
(g14
g15
NtRp413
(dp414
g18
I1
sg19
I0
sg20
I609
sg21
I0
sg22
I0
sg23
I249
sg24
I0
sbssg25
S'Vq\xd7\x8fc\x95\\\xfb`\x9a:\x17\xc3v>\x8a'
p415
ssS'_home_deanna_django-deanna_lib_python2_7_site-packages_Django-1_7_4-py2_7_egg_django_utils_timesince'
p416
(dp417
g6
(dp418
g48
S'_home_deanna_django-deanna_lib_python2_7_site-packages_Django-1_7_4-py2_7_egg_django_utils_timesince.html'
p419
sg50
S'/home/deanna/django-deanna/lib/python2.7/site-packages/Django-1.7.4-py2.7.egg/django/utils/timesince'
p420
sg52
g13
(g14
g15
NtRp421
(dp422
g18
I1
sg19
I0
sg20
I30
sg21
I0
sg22
I0
sg23
I23
sg24
I0
sbssg25
S'\xea\x9f\xdaYp\xa9#\xe8\xa5\xa7\xf2\xd1\xb8\x06\xcc%'
p423
ssS'_home_deanna_django-deanna_lib_python2_7_site-packages_Django-1_7_4-py2_7_egg_django_db_models_query'
p424
(dp425
g6
(dp426
g8
S'_home_deanna_django-deanna_lib_python2_7_site-packages_Django-1_7_4-py2_7_egg_django_db_models_query.html'
p427
sg10
S'/home/deanna/django-deanna/lib/python2.7/site-packages/Django-1.7.4-py2.7.egg/django/db/models/query'
p428
sg12
g13
(g14
g15
NtRp429
(dp430
g18
I1
sg19
I0
sg20
I992
sg21
I0
sg22
I0
sg23
I652
sg24
I0
sbssg25
S'z\x19\xe4\xe9\t\xaa\xe2\x15\x04\xce\x94\xe5<\xa6\x1a\xe6'
p431
ssS'_home_deanna_django-deanna_lib_python2_7_site-packages_Django-1_7_4-py2_7_egg_django_middleware_csrf'
p432
(dp433
g6
(dp434
g8
S'_home_deanna_django-deanna_lib_python2_7_site-packages_Django-1_7_4-py2_7_egg_django_middleware_csrf.html'
p435
sg10
S'/home/deanna/django-deanna/lib/python2.7/site-packages/Django-1.7.4-py2.7.egg/django/middleware/csrf'
p436
sg12
g13
(g14
g15
NtRp437
(dp438
g18
I1
sg19
I0
sg20
I81
sg21
I0
sg22
I0
sg23
I34
sg24
I0
sbssg25
S's\xb8\x84S\xf9\xad\x0c\xb42\xbe\x8e\xad\xb8\xea\xca\xba'
p439
ssS'_home_deanna_django-deanna_lib_python2_7_site-packages_Django-1_7_4-py2_7_egg_django_core_files___init__'
p440
(dp441
g6
(dp442
g48
S'_home_deanna_django-deanna_lib_python2_7_site-packages_Django-1_7_4-py2_7_egg_django_core_files___init__.html'
p443
sg50
S'/home/deanna/django-deanna/lib/python2.7/site-packages/Django-1.7.4-py2.7.egg/django/core/files/__init__'
p444
sg52
g13
(g14
g15
NtRp445
(dp446
g18
I1
sg19
I0
sg20
I2
sg21
I0
sg22
I0
sg23
I0
sg24
I0
sbssg25
S'G\xfbz6gu\xc3\x13E\x9f3\xbb\xe0d\xe3`'
p447
ssS'_home_deanna_django-deanna_lib_python2_7_site-packages_Django-1_7_4-py2_7_egg_django___init__'
p448
(dp449
g6
(dp450
g48
S'_home_deanna_django-deanna_lib_python2_7_site-packages_Django-1_7_4-py2_7_egg_django___init__.html'
p451
sg50
S'/home/deanna/django-deanna/lib/python2.7/site-packages/Django-1.7.4-py2.7.egg/django/__init__'
p452
sg52
g13
(g14
g15
NtRp453
(dp454
g18
I1
sg19
I0
sg20
I10
sg21
I0
sg22
I0
sg23
I0
sg24
I0
sbssg25
S'\xa6\x85\x83[\x83y\xa4\xc7\\\xeakS\x93\xd5\xfb\xc8'
p455
ssS'manage'
p456
(dp457
g6
(dp458
g48
S'manage.html'
p459
sg50
g456
sg52
g13
(g14
g15
NtRp460
(dp461
g18
I1
sg19
I0
sg20
I6
sg21
I0
sg22
I0
sg23
I0
sg24
I0
sbssg25
S'\xd3\x18]\x99I\xb3\x95\x01\xc6\x8c\xf2\x117\x8d\x9e\xd7'
p462
ssS'_home_deanna_django-deanna_lib_python2_7_site-packages_Django-1_7_4-py2_7_egg_django_utils_cache'
p463
(dp464
g6
(dp465
g8
S'_home_deanna_django-deanna_lib_python2_7_site-packages_Django-1_7_4-py2_7_egg_django_utils_cache.html'
p466
sg10
S'/home/deanna/django-deanna/lib/python2.7/site-packages/Django-1.7.4-py2.7.egg/django/utils/cache'
p467
sg12
g13
(g14
g15
NtRp468
(dp469
g18
I1
sg19
I0
sg20
I133
sg21
I0
sg22
I0
sg23
I103
sg24
I0
sbssg25
S'\x95W\x95\x1d\xb0\xc9y\xad\x18T\x82\xf9\x817\xc3~'
p470
ssS'_home_deanna_django-deanna_lib_python2_7_site-packages_Django-1_7_4-py2_7_egg_django_shortcuts'
p471
(dp472
g6
(dp473
g8
S'_home_deanna_django-deanna_lib_python2_7_site-packages_Django-1_7_4-py2_7_egg_django_shortcuts.html'
p474
sg10
S'/home/deanna/django-deanna/lib/python2.7/site-packages/Django-1.7.4-py2.7.egg/django/shortcuts'
p475
sg12
g13
(g14
g15
NtRp476
(dp477
g18
I1
sg19
I0
sg20
I68
sg21
I0
sg22
I0
sg23
I49
sg24
I0
sbssg25
S'\xe9\xfa\xe8\x8fv\xaf\xd7\x87q=\xf2\x1dV\xf1\xe2k'
p478
ssS'_home_deanna_django-deanna_lib_python2_7_site-packages_Django-1_7_4-py2_7_egg_django_contrib_sessions_exceptions'
p479
(dp480
g6
(dp481
g48
S'_home_deanna_django-deanna_lib_python2_7_site-packages_Django-1_7_4-py2_7_egg_django_contrib_sessions_exceptions.html'
p482
sg50
S'/home/deanna/django-deanna/lib/python2.7/site-packages/Django-1.7.4-py2.7.egg/django/contrib/sessions/exceptions'
p483
sg52
g13
(g14
g15
NtRp484
(dp485
g18
I1
sg19
I0
sg20
I5
sg21
I0
sg22
I0
sg23
I0
sg24
I0
sbssg25
S'\x95\x04\x01\x10c\xc83\xdaB\xb8qa\xe6[c\xd8'
p486
ssS'_home_deanna_django-deanna_lib_python2_7_site-packages_Django-1_7_4-py2_7_egg_django_contrib_staticfiles___init__'
p487
(dp488
g6
(dp489
g48
S'_home_deanna_django-deanna_lib_python2_7_site-packages_Django-1_7_4-py2_7_egg_django_contrib_staticfiles___init__.html'
p490
sg50
S'/home/deanna/django-deanna/lib/python2.7/site-packages/Django-1.7.4-py2.7.egg/django/contrib/staticfiles/__init__'
p491
sg52
g13
(g14
g15
NtRp492
(dp493
g18
I1
sg19
I0
sg20
I1
sg21
I0
sg22
I0
sg23
I0
sg24
I0
sbssg25
S'\n\xf5w\xa9q\x7f\x1f\xd1\xd9\x7f\xf5e\xee\xf4\x08\xcb'
p494
ssS'_home_deanna_django-deanna_lib_python2_7_site-packages_Django-1_7_4-py2_7_egg_django_contrib_sessions___init__'
p495
(dp496
g6
(dp497
g48
S'_home_deanna_django-deanna_lib_python2_7_site-packages_Django-1_7_4-py2_7_egg_django_contrib_sessions___init__.html'
p498
sg50
S'/home/deanna/django-deanna/lib/python2.7/site-packages/Django-1.7.4-py2.7.egg/django/contrib/sessions/__init__'
p499
sg52
g13
(g14
g15
NtRp500
(dp501
g18
I1
sg19
I0
sg20
I1
sg21
I0
sg22
I0
sg23
I0
sg24
I0
sbssg25
S'\xdcQHA\xd9\x96\x89w!\xbb\xc1o\xf5\x9e%\xf4'
p502
ssS'_home_deanna_django-deanna_lib_python2_7_site-packages_Django-1_7_4-py2_7_egg_django_utils_datetime_safe'
p503
(dp504
g6
(dp505
g48
S'_home_deanna_django-deanna_lib_python2_7_site-packages_Django-1_7_4-py2_7_egg_django_utils_datetime_safe.html'
p506
sg50
S'/home/deanna/django-deanna/lib/python2.7/site-packages/Django-1.7.4-py2.7.egg/django/utils/datetime_safe'
p507
sg52
g13
(g14
g15
NtRp508
(dp509
g18
I1
sg19
I0
sg20
I58
sg21
I0
sg22
I0
sg23
I42
sg24
I0
sbssg25
S'\xf3|\xf0\xf6\xd7\x0f$8\xf9g\xdf\x0e\xe5\xd2\x93+'
p510
ssS'_home_deanna_django-deanna_lib_python2_7_site-packages_tastypie_authorization'
p511
(dp512
g29
(dp513
g8
S'_home_deanna_django-deanna_lib_python2_7_site-packages_tastypie_authorization.html'
p514
sg10
S'/home/deanna/django-deanna/lib/python2.7/site-packages/tastypie/authorization'
p515
sg12
g13
(g14
g15
NtRp516
(dp517
g18
I1
sg19
I0
sg20
I106
sg21
I0
sg22
I0
sg23
I74
sg24
I0
sbssg35
S"5G\xca8(JC\x15-B'\xd2S\xeb\x01\x0b"
p518
ssS'_home_deanna_django-deanna_lib_python2_7_site-packages_Django-1_7_4-py2_7_egg_django_contrib_contenttypes_forms'
p519
(dp520
g6
(dp521
g48
S'_home_deanna_django-deanna_lib_python2_7_site-packages_Django-1_7_4-py2_7_egg_django_contrib_contenttypes_forms.html'
p522
sg50
S'/home/deanna/django-deanna/lib/python2.7/site-packages/Django-1.7.4-py2.7.egg/django/contrib/contenttypes/forms'
p523
sg52
g13
(g14
g15
NtRp524
(dp525
g18
I1
sg19
I0
sg20
I38
sg21
I0
sg22
I0
sg23
I28
sg24
I0
sbssg25
S'\xea!\xe4\x98\x17H\x12W\x8ej\xf7\x02\xa67\xbf\x1f'
p526
ssS'_home_deanna_django-deanna_lib_python2_7_site-packages_Django-1_7_4-py2_7_egg_django_core_files_uploadedfile'
p527
(dp528
g6
(dp529
g48
S'_home_deanna_django-deanna_lib_python2_7_site-packages_Django-1_7_4-py2_7_egg_django_core_files_uploadedfile.html'
p530
sg50
S'/home/deanna/django-deanna/lib/python2.7/site-packages/Django-1.7.4-py2.7.egg/django/core/files/uploadedfile'
p531
sg52
g13
(g14
g15
NtRp532
(dp533
g18
I1
sg19
I0
sg20
I60
sg21
I0
sg22
I0
sg23
I33
sg24
I0
sbssg25
S'\x85\xba\x80\xf11\xf0\xb9\xbf\x00\xf27D2\xbbX\x9e'
p534
ssS'article_admin'
p535
(dp536
g6
(dp537
g48
S'article_admin.html'
p538
sg50
S'article/admin'
p539
sg52
g13
(g14
g15
NtRp540
(dp541
g18
I1
sg19
I0
sg20
I3
sg21
I0
sg22
I0
sg23
I0
sg24
I0
sbssg25
S'j\xc3\x02ziB,\xfa\xaf\x0e\xd1P\xc7}\x8a\\'
p542
ssS'_home_deanna_django-deanna_lib_python2_7_site-packages_Django-1_7_4-py2_7_egg_django_core_servers_basehttp'
p543
(dp544
g6
(dp545
g48
S'_home_deanna_django-deanna_lib_python2_7_site-packages_Django-1_7_4-py2_7_egg_django_core_servers_basehttp.html'
p546
sg50
S'/home/deanna/django-deanna/lib/python2.7/site-packages/Django-1.7.4-py2.7.egg/django/core/servers/basehttp'
p547
sg52
g13
(g14
g15
NtRp548
(dp549
g18
I1
sg19
I0
sg20
I93
sg21
I0
sg22
I0
sg23
I62
sg24
I0
sbssg25
S'\xcd\xa4S\x0e ]w;\x0f\xd0ok\xea\xe9U\t'
p550
ssS'_home_deanna_django-deanna_lib_python2_7_site-packages_Django-1_7_4-py2_7_egg_django_core_management_commands___init__'
p551
(dp552
g6
(dp553
g48
S'_home_deanna_django-deanna_lib_python2_7_site-packages_Django-1_7_4-py2_7_egg_django_core_management_commands___init__.html'
p554
sg50
S'/home/deanna/django-deanna/lib/python2.7/site-packages/Django-1.7.4-py2.7.egg/django/core/management/commands/__init__'
p555
sg52
g13
(g14
g15
NtRp556
(dp557
g18
I1
sg19
I0
sg20
I0
sg21
I0
sg22
I0
sg23
I0
sg24
I0
sbssg25
S'\xca\xf5\x9f\x7f\x88\xdfa\x831|T\x1d\xbc}\xa5v'
p558
ssS'_home_deanna_django-deanna_lib_python2_7_site-packages_Django-1_7_4-py2_7_egg_django_db_models_aggregates'
p559
(dp560
g6
(dp561
g48
S'_home_deanna_django-deanna_lib_python2_7_site-packages_Django-1_7_4-py2_7_egg_django_db_models_aggregates.html'
p562
sg50
S'/home/deanna/django-deanna/lib/python2.7/site-packages/Django-1.7.4-py2.7.egg/django/db/models/aggregates'
p563
sg52
g13
(g14
g15
NtRp564
(dp565
g18
I1
sg19
I0
sg20
I33
sg21
I0
sg22
I0
sg23
I11
sg24
I0
sbssg25
S'\xaf\x92\x0fy\x98wh\x16``\x1f\xb1\xb4\xaaG\xb4'
p566
ssS'_home_deanna_django-deanna_lib_python2_7_site-packages_Django-1_7_4-py2_7_egg_django_db_models_expressions'
p567
(dp568
g6
(dp569
g48
S'_home_deanna_django-deanna_lib_python2_7_site-packages_Django-1_7_4-py2_7_egg_django_db_models_expressions.html'
p570
sg50
S'/home/deanna/django-deanna/lib/python2.7/site-packages/Django-1.7.4-py2.7.egg/django/db/models/expressions'
p571
sg52
g13
(g14
g15
NtRp572
(dp573
g18
I1
sg19
I0
sg20
I99
sg21
I0
sg22
I0
sg23
I52
sg24
I0
sbssg25
S'B\xa9\xd04\x85D\xec\xa7s\xfeZ\x85\x82F\x9fO'
p574
ssS'_home_deanna_django-deanna_lib_python2_7_site-packages_Django-1_7_4-py2_7_egg_django_core_management_commands_loaddata'
p575
(dp576
g6
(dp577
g48
S'_home_deanna_django-deanna_lib_python2_7_site-packages_Django-1_7_4-py2_7_egg_django_core_management_commands_loaddata.html'
p578
sg50
S'/home/deanna/django-deanna/lib/python2.7/site-packages/Django-1.7.4-py2.7.egg/django/core/management/commands/loaddata'
p579
sg52
g13
(g14
g15
NtRp580
(dp581
g18
I1
sg19
I0
sg20
I173
sg21
I0
sg22
I0
sg23
I69
sg24
I0
sbssg25
S'\xab\xf9-b\x81\xd6?\xd7\xa7\xd3v\xee\xd1m\x8f?'
p582
ssS'_home_deanna_django-deanna_lib_python2_7_site-packages_lxml__elementpath'
p583
(dp584
g29
(dp585
g8
S'_home_deanna_django-deanna_lib_python2_7_site-packages_lxml__elementpath.html'
p586
sg10
S'/home/deanna/django-deanna/lib/python2.7/site-packages/lxml/_elementpath'
p587
sg12
g13
(g14
g15
NtRp588
(dp589
g18
I1
sg19
I0
sg20
I182
sg21
I0
sg22
I0
sg23
I166
sg24
I0
sbssg35
S'+\xed\xe9\x1b,\xb5n\xad\x84\x99h\xfcFUb\xdc'
p590
ssS'_home_deanna_django-deanna_lib_python2_7_site-packages_Django-1_7_4-py2_7_egg_django_views_debug'
p591
(dp592
g6
(dp593
g48
S'_home_deanna_django-deanna_lib_python2_7_site-packages_Django-1_7_4-py2_7_egg_django_views_debug.html'
p594
sg50
S'/home/deanna/django-deanna/lib/python2.7/site-packages/Django-1.7.4-py2.7.egg/django/views/debug'
p595
sg52
g13
(g14
g15
NtRp596
(dp597
g18
I1
sg19
I0
sg20
I302
sg21
I0
sg22
I0
sg23
I250
sg24
I0
sbssg25
S':\xbb\xbc\xbdp[}\x95\xd9&\xaf\x8f\x8c\x8b\xb0\xc1'
p598
ssS'_home_deanna_django-deanna_lib_python2_7_site-packages_Django-1_7_4-py2_7_egg_django_db_migrations_migration'
p599
(dp600
g6
(dp601
g48
S'_home_deanna_django-deanna_lib_python2_7_site-packages_Django-1_7_4-py2_7_egg_django_db_migrations_migration.html'
p602
sg50
S'/home/deanna/django-deanna/lib/python2.7/site-packages/Django-1.7.4-py2.7.egg/django/db/migrations/migration'
p603
sg52
g13
(g14
g15
NtRp604
(dp605
g18
I1
sg19
I0
sg20
I79
sg21
I0
sg22
I0
sg23
I35
sg24
I0
sbssg25
S'\xad\xb2b\xfc\xc5\x01\xf0\xbeDt\x12v6\xd99\xbd'
p606
ssS'_home_deanna_django-deanna_lib_python2_7_site-packages_Django-1_7_4-py2_7_egg_django_core_management_commands_migrate'
p607
(dp608
g6
(dp609
g48
S'_home_deanna_django-deanna_lib_python2_7_site-packages_Django-1_7_4-py2_7_egg_django_core_management_commands_migrate.html'
p610
sg50
S'/home/deanna/django-deanna/lib/python2.7/site-packages/Django-1.7.4-py2.7.egg/django/core/management/commands/migrate'
p611
sg52
g13
(g14
g15
NtRp612
(dp613
g18
I1
sg19
I0
sg20
I214
sg21
I0
sg22
I0
sg23
I82
sg24
I0
sbssg25
S'\x13M\xca\xe1\xf5\xeb\xdc\x15#\xaau\xbb\x88\xc4Y\xdc'
p614
ssS'_home_deanna_django-deanna_lib_python2_7_site-packages_tastypie_admin'
p615
(dp616
g6
(dp617
g48
S'_home_deanna_django-deanna_lib_python2_7_site-packages_tastypie_admin.html'
p618
sg50
S'/home/deanna/django-deanna/lib/python2.7/site-packages/tastypie/admin'
p619
sg52
g13
(g14
g15
NtRp620
(dp621
g18
I1
sg19
I0
sg20
I13
sg21
I0
sg22
I0
sg23
I1
sg24
I0
sbssg25
S'\x96\\9\x02\x8e\xbe\xfb<)Z\x91\xa3\xcaX\x0f1'
p622
ssS'_home_deanna_django-deanna_lib_python2_7_site-packages_Django-1_7_4-py2_7_egg_django_test_utils'
p623
(dp624
g6
(dp625
g8
S'_home_deanna_django-deanna_lib_python2_7_site-packages_Django-1_7_4-py2_7_egg_django_test_utils.html'
p626
sg10
S'/home/deanna/django-deanna/lib/python2.7/site-packages/Django-1.7.4-py2.7.egg/django/test/utils'
p627
sg12
g13
(g14
g15
NtRp628
(dp629
g18
I1
sg19
I0
sg20
I301
sg21
I0
sg22
I0
sg23
I202
sg24
I0
sbssg25
S'mQ\xd3. \xc5\x8a\x9f\x9f\x1c\xb9\xfdH&\xdeD'
p630
ssS'_home_deanna_django-deanna_lib_python2_7_site-packages_Django-1_7_4-py2_7_egg_django_contrib_admin_checks'
p631
(dp632
g6
(dp633
g48
S'_home_deanna_django-deanna_lib_python2_7_site-packages_Django-1_7_4-py2_7_egg_django_contrib_admin_checks.html'
p634
sg50
S'/home/deanna/django-deanna/lib/python2.7/site-packages/Django-1.7.4-py2.7.egg/django/contrib/admin/checks'
p635
sg52
g13
(g14
g15
NtRp636
(dp637
g18
I1
sg19
I0
sg20
I399
sg21
I0
sg22
I0
sg23
I191
sg24
I0
sbssg25
S'\xc3\xa0\xd1@~3\xb2\x8d\xc4.\xcaj\x1dQ\x06\xae'
p638
ssS'_home_deanna_django-deanna_lib_python2_7_site-packages_tastypie_http'
p639
(dp640
g29
(dp641
g8
S'_home_deanna_django-deanna_lib_python2_7_site-packages_tastypie_http.html'
p642
sg10
S'/home/deanna/django-deanna/lib/python2.7/site-packages/tastypie/http'
p643
sg12
g13
(g14
g15
NtRp644
(dp645
g18
I1
sg19
I0
sg20
I40
sg21
I0
sg22
I0
sg23
I3
sg24
I0
sbssg35
S'@\xee\xc6\xb2\xeb\xed@\x9e\\X\xb0\x94\xc5\xd2S2'
p646
ssS'_home_deanna_django-deanna_lib_python2_7_site-packages_Django-1_7_4-py2_7_egg_django_contrib_contenttypes_views'
p647
(dp648
g29
(dp649
g8
S'_home_deanna_django-deanna_lib_python2_7_site-packages_Django-1_7_4-py2_7_egg_django_contrib_contenttypes_views.html'
p650
sg10
S'/home/deanna/django-deanna/lib/python2.7/site-packages/Django-1.7.4-py2.7.egg/django/contrib/contenttypes/views'
p651
sg12
g13
(g14
g15
NtRp652
(dp653
g18
I1
sg19
I0
sg20
I53
sg21
I0
sg22
I0
sg23
I45
sg24
I0
sbssg35
S'\x0bH\xab\x1e\xb3\xd0\xb0&\xe9F\xe7\xb2q\xe2>\xa3'
p654
ssS'_home_deanna_django-deanna_lib_python2_7_site-packages_Django-1_7_4-py2_7_egg_django_middleware_cache'
p655
(dp656
g6
(dp657
g48
S'_home_deanna_django-deanna_lib_python2_7_site-packages_Django-1_7_4-py2_7_egg_django_middleware_cache.html'
p658
sg50
S'/home/deanna/django-deanna/lib/python2.7/site-packages/Django-1.7.4-py2.7.egg/django/middleware/cache'
p659
sg52
g13
(g14
g15
NtRp660
(dp661
g18
I1
sg19
I0
sg20
I92
sg21
I0
sg22
I0
sg23
I77
sg24
I0
sbssg25
S'G,\xa7Kn\x1ff\x91\xe2y\x8c\xbbey\xa5~'
p662
ssS'_home_deanna_django-deanna_lib_python2_7_site-packages_Django-1_7_4-py2_7_egg_django_utils_text'
p663
(dp664
g6
(dp665
g8
S'_home_deanna_django-deanna_lib_python2_7_site-packages_Django-1_7_4-py2_7_egg_django_utils_text.html'
p666
sg10
S'/home/deanna/django-deanna/lib/python2.7/site-packages/Django-1.7.4-py2.7.egg/django/utils/text'
p667
sg12
g13
(g14
g15
NtRp668
(dp669
g18
I1
sg19
I0
sg20
I239
sg21
I0
sg22
I0
sg23
I160
sg24
I0
sbssg25
S'3\xfa\x99\x84Y>\xcf\xefZ\xc6\x8a1\x8e\xab&\x04'
p670
ssS'_home_deanna_django-deanna_lib_python2_7_site-packages_Django-1_7_4-py2_7_egg_django_contrib_comments_forms'
p671
(dp672
g6
(dp673
g48
S'_home_deanna_django-deanna_lib_python2_7_site-packages_Django-1_7_4-py2_7_egg_django_contrib_comments_forms.html'
p674
sg50
S'/home/deanna/django-deanna/lib/python2.7/site-packages/Django-1.7.4-py2.7.egg/django/contrib/comments/forms'
p675
sg52
g13
(g14
g15
NtRp676
(dp677
g18
I1
sg19
I0
sg20
I89
sg21
I0
sg22
I0
sg23
I52
sg24
I0
sbssg25
S'@\x08(\xf3\x95\xe2x\xf3\x17L*\xf6\xbfx\x17\xfc'
p678
ssS'_home_deanna_django-deanna_lib_python2_7_site-packages_Django-1_7_4-py2_7_egg_django_http___init__'
p679
(dp680
g6
(dp681
g48
S'_home_deanna_django-deanna_lib_python2_7_site-packages_Django-1_7_4-py2_7_egg_django_http___init__.html'
p682
sg50
S'/home/deanna/django-deanna/lib/python2.7/site-packages/Django-1.7.4-py2.7.egg/django/http/__init__'
p683
sg52
g13
(g14
g15
NtRp684
(dp685
g18
I1
sg19
I0
sg20
I5
sg21
I0
sg22
I0
sg23
I0
sg24
I0
sbssg25
S'\xe2\xfe\x8d\xd7OfCr\xc0\xd2\\\xbf\x1c\x90\x01\x0b'
p686
ssS'_home_deanna_django-deanna_lib_python2_7_site-packages_Django-1_7_4-py2_7_egg_django_contrib_messages___init__'
p687
(dp688
g6
(dp689
g48
S'_home_deanna_django-deanna_lib_python2_7_site-packages_Django-1_7_4-py2_7_egg_django_contrib_messages___init__.html'
p690
sg50
S'/home/deanna/django-deanna/lib/python2.7/site-packages/Django-1.7.4-py2.7.egg/django/contrib/messages/__init__'
p691
sg52
g13
(g14
g15
NtRp692
(dp693
g18
I1
sg19
I0
sg20
I3
sg21
I0
sg22
I0
sg23
I0
sg24
I0
sbssg25
S'\xbc\xf2\x97i5\x1b\\M\x17\x84a\\p\xe3\xafw'
p694
ssS'_home_deanna_django-deanna_lib_python2_7_site-packages_Django-1_7_4-py2_7_egg_django_core_checks_compatibility___init__'
p695
(dp696
g6
(dp697
g48
S'_home_deanna_django-deanna_lib_python2_7_site-packages_Django-1_7_4-py2_7_egg_django_core_checks_compatibility___init__.html'
p698
sg50
S'/home/deanna/django-deanna/lib/python2.7/site-packages/Django-1.7.4-py2.7.egg/django/core/checks/compatibility/__init__'
p699
sg52
g13
(g14
g15
NtRp700
(dp701
g18
I1
sg19
I0
sg20
I0
sg21
I0
sg22
I0
sg23
I0
sg24
I0
sbssg25
S'\xca\xf5\x9f\x7f\x88\xdfa\x831|T\x1d\xbc}\xa5v'
p702
ssS'_home_deanna_django-deanna_lib_python2_7_site-packages_Django-1_7_4-py2_7_egg_django_forms_forms'
p703
(dp704
g6
(dp705
g48
S'_home_deanna_django-deanna_lib_python2_7_site-packages_Django-1_7_4-py2_7_egg_django_forms_forms.html'
p706
sg50
S'/home/deanna/django-deanna/lib/python2.7/site-packages/Django-1.7.4-py2.7.egg/django/forms/forms'
p707
sg52
g13
(g14
g15
NtRp708
(dp709
g18
I1
sg19
I0
sg20
I325
sg21
I0
sg22
I0
sg23
I240
sg24
I0
sbssg25
S'#X\x8f\x1bdoW\xef!l7y\x83\xbd|\x00'
p710
ssS'_home_deanna_django-deanna_lib_python2_7_site-packages_Django-1_7_4-py2_7_egg_django_db_models_sql_compiler'
p711
(dp712
g6
(dp713
g8
S'_home_deanna_django-deanna_lib_python2_7_site-packages_Django-1_7_4-py2_7_egg_django_db_models_sql_compiler.html'
p714
sg10
S'/home/deanna/django-deanna/lib/python2.7/site-packages/Django-1.7.4-py2.7.egg/django/db/models/sql/compiler'
p715
sg12
g13
(g14
g15
NtRp716
(dp717
g18
I1
sg19
I0
sg20
I703
sg21
I0
sg22
I0
sg23
I341
sg24
I0
sbssg25
S'\x1f\xac\x12\xcbU\xedkp\x93ms:\x054\xc0-'
p718
ssS'_home_deanna_django-deanna_lib_python2_7_site-packages_Django-1_7_4-py2_7_egg_django_core_files_temp'
p719
(dp720
g6
(dp721
g48
S'_home_deanna_django-deanna_lib_python2_7_site-packages_Django-1_7_4-py2_7_egg_django_core_files_temp.html'
p722
sg50
S'/home/deanna/django-deanna/lib/python2.7/site-packages/Django-1.7.4-py2.7.egg/django/core/files/temp'
p723
sg52
g13
(g14
g15
NtRp724
(dp725
g18
I1
sg19
I0
sg20
I35
sg21
I0
sg22
I0
sg23
I28
sg24
I0
sbssg25
S'?1\x91u0T|[< \x85\xce\xee~\x84?'
p726
ssS'_home_deanna_django-deanna_lib_python2_7_site-packages_Django-1_7_4-py2_7_egg_django_db_models_fields_files'
p727
(dp728
g6
(dp729
g8
S'_home_deanna_django-deanna_lib_python2_7_site-packages_Django-1_7_4-py2_7_egg_django_db_models_fields_files.html'
p730
sg10
S'/home/deanna/django-deanna/lib/python2.7/site-packages/Django-1.7.4-py2.7.egg/django/db/models/fields/files'
p731
sg12
g13
(g14
g15
NtRp732
(dp733
g18
I1
sg19
I0
sg20
I247
sg21
I0
sg22
I0
sg23
I120
sg24
I0
sbssg25
S'[Y\xed\x87\xca\xdf\xb7\xdd\x1eYV\xfe@\x8c\xfd\xca'
p734
ssS'_home_deanna_django-deanna_lib_python2_7_site-packages_Django-1_7_4-py2_7_egg_django_db_models_sql_query'
p735
(dp736
g6
(dp737
g8
S'_home_deanna_django-deanna_lib_python2_7_site-packages_Django-1_7_4-py2_7_egg_django_db_models_sql_query.html'
p738
sg10
S'/home/deanna/django-deanna/lib/python2.7/site-packages/Django-1.7.4-py2.7.egg/django/db/models/sql/query'
p739
sg12
g13
(g14
g15
NtRp740
(dp741
g18
I1
sg19
I0
sg20
I1063
sg21
I0
sg22
I0
sg23
I530
sg24
I0
sbssg25
S'3\x12\x9d\xd0;u\x02F\xb5\xb4\xa2\xc5\x87\n\xbfZ'
p742
ssS'_home_deanna_django-deanna_lib_python2_7_site-packages_Django-1_7_4-py2_7_egg_django_contrib_admin_options'
p743
(dp744
g6
(dp745
g8
S'_home_deanna_django-deanna_lib_python2_7_site-packages_Django-1_7_4-py2_7_egg_django_contrib_admin_options.html'
p746
sg10
S'/home/deanna/django-deanna/lib/python2.7/site-packages/Django-1.7.4-py2.7.egg/django/contrib/admin/options'
p747
sg12
g13
(g14
g15
NtRp748
(dp749
g18
I1
sg19
I0
sg20
I961
sg21
I0
sg22
I0
sg23
I735
sg24
I0
sbssg25
S'\xc02\x99\xc1V\xc8\x88]\x11\xae?\xe0\x80/dN'
p750
ssS'django_test_urls'
p751
(dp752
g29
(dp753
g8
S'django_test_urls.html'
p754
sg10
S'django_test/urls'
p755
sg12
g13
(g14
g15
NtRp756
(dp757
g18
I1
sg19
I0
sg20
I5
sg21
I0
sg22
I0
sg23
I0
sg24
I0
sbssg35
S'DA\xaa\xcf).\x87\x94\xc4_\xfe\x9a\xf9\x00 T'
p758
ssS'_home_deanna_django-deanna_lib_python2_7_site-packages_Django-1_7_4-py2_7_egg_django_utils_formats'
p759
(dp760
g6
(dp761
g8
S'_home_deanna_django-deanna_lib_python2_7_site-packages_Django-1_7_4-py2_7_egg_django_utils_formats.html'
p762
sg10
S'/home/deanna/django-deanna/lib/python2.7/site-packages/Django-1.7.4-py2.7.egg/django/utils/formats'
p763
sg12
g13
(g14
g15
NtRp764
(dp765
g18
I1
sg19
I0
sg20
I118
sg21
I0
sg22
I0
sg23
I50
sg24
I0
sbssg25
S'\x16\xba\xd1\xf8\x94A*\x8a\xa7\xf6\x8aS[\xd6U\x1b'
p766
ssS'_home_deanna_django-deanna_lib_python2_7_site-packages_Django-1_7_4-py2_7_egg_django_template_loaders___init__'
p767
(dp768
g6
(dp769
g48
S'_home_deanna_django-deanna_lib_python2_7_site-packages_Django-1_7_4-py2_7_egg_django_template_loaders___init__.html'
p770
sg50
S'/home/deanna/django-deanna/lib/python2.7/site-packages/Django-1.7.4-py2.7.egg/django/template/loaders/__init__'
p771
sg52
g13
(g14
g15
NtRp772
(dp773
g18
I1
sg19
I0
sg20
I0
sg21
I0
sg22
I0
sg23
I0
sg24
I0
sbssg25
S'\xca\xf5\x9f\x7f\x88\xdfa\x831|T\x1d\xbc}\xa5v'
p774
ssS'article_migrations___init__'
p775
(dp776
g6
(dp777
g48
S'article_migrations___init__.html'
p778
sg50
S'article/migrations/__init__'
p779
sg52
g13
(g14
g15
NtRp780
(dp781
g18
I1
sg19
I0
sg20
I0
sg21
I0
sg22
I0
sg23
I0
sg24
I0
sbssg25
S'\xca\xf5\x9f\x7f\x88\xdfa\x831|T\x1d\xbc}\xa5v'
p782
ssS'_home_deanna_django-deanna_lib_python2_7_site-packages_Django-1_7_4-py2_7_egg_django_utils_deprecation'
p783
(dp784
g6
(dp785
g48
S'_home_deanna_django-deanna_lib_python2_7_site-packages_Django-1_7_4-py2_7_egg_django_utils_deprecation.html'
p786
sg50
S'/home/deanna/django-deanna/lib/python2.7/site-packages/Django-1.7.4-py2.7.egg/django/utils/deprecation'
p787
sg52
g13
(g14
g15
NtRp788
(dp789
g18
I1
sg19
I0
sg20
I38
sg21
I0
sg22
I0
sg23
I5
sg24
I0
sbssg25
S"P\xfd'\x10\xad;\xf5\xbd>,o\x85\x95\xfd\xfc\xed"
p790
ssS'_home_deanna_django-deanna_lib_python2_7_site-packages_Django-1_7_4-py2_7_egg_django_utils_log'
p791
(dp792
g6
(dp793
g48
S'_home_deanna_django-deanna_lib_python2_7_site-packages_Django-1_7_4-py2_7_egg_django_utils_log.html'
p794
sg50
S'/home/deanna/django-deanna/lib/python2.7/site-packages/Django-1.7.4-py2.7.egg/django/utils/log'
p795
sg52
g13
(g14
g15
NtRp796
(dp797
g18
I1
sg19
I0
sg20
I65
sg21
I0
sg22
I0
sg23
I26
sg24
I0
sbssg25
S"xAw/#\x11F\xfb)'\x95\xc2#\x9c}\x8e"
p798
ssS'_home_deanna_django-deanna_lib_python2_7_site-packages_Django-1_7_4-py2_7_egg_django_contrib_staticfiles_apps'
p799
(dp800
g6
(dp801
g48
S'_home_deanna_django-deanna_lib_python2_7_site-packages_Django-1_7_4-py2_7_egg_django_contrib_staticfiles_apps.html'
p802
sg50
S'/home/deanna/django-deanna/lib/python2.7/site-packages/Django-1.7.4-py2.7.egg/django/contrib/staticfiles/apps'
p803
sg52
g13
(g14
g15
NtRp804
(dp805
g18
I1
sg19
I0
sg20
I5
sg21
I0
sg22
I0
sg23
I0
sg24
I0
sbssg25
S"\xe0\xa6G+$\x97'\xf2\x1a\xd3h\xe0\xc5l\xc3*"
p806
ssS'_home_deanna_django-deanna_lib_python2_7_site-packages_Django-1_7_4-py2_7_egg_django_templatetags___init__'
p807
(dp808
g29
(dp809
g8
S'_home_deanna_django-deanna_lib_python2_7_site-packages_Django-1_7_4-py2_7_egg_django_templatetags___init__.html'
p810
sg10
S'/home/deanna/django-deanna/lib/python2.7/site-packages/Django-1.7.4-py2.7.egg/django/templatetags/__init__'
p811
sg12
g13
(g14
g15
NtRp812
(dp813
g18
I1
sg19
I0
sg20
I0
sg21
I0
sg22
I0
sg23
I0
sg24
I0
sbssg35
S'\xca\xf5\x9f\x7f\x88\xdfa\x831|T\x1d\xbc}\xa5v'
p814
ssS'_home_deanna_django-deanna_lib_python2_7_site-packages_Django-1_7_4-py2_7_egg_django_db_migrations_graph'
p815
(dp816
g6
(dp817
g48
S'_home_deanna_django-deanna_lib_python2_7_site-packages_Django-1_7_4-py2_7_egg_django_db_migrations_graph.html'
p818
sg50
S'/home/deanna/django-deanna/lib/python2.7/site-packages/Django-1.7.4-py2.7.egg/django/db/migrations/graph'
p819
sg52
g13
(g14
g15
NtRp820
(dp821
g18
I1
sg19
I0
sg20
I89
sg21
I0
sg22
I0
sg23
I11
sg24
I0
sbssg25
S'\xbd5\xc9\xe6\x14.\xe7\x10g\xb5\xda\x1a\xb6\x97f\x84'
p822
ssS'_home_deanna_django-deanna_lib_python2_7_site-packages_Django-1_7_4-py2_7_egg_django_forms_fields'
p823
(dp824
g6
(dp825
g8
S'_home_deanna_django-deanna_lib_python2_7_site-packages_Django-1_7_4-py2_7_egg_django_forms_fields.html'
p826
sg10
S'/home/deanna/django-deanna/lib/python2.7/site-packages/Django-1.7.4-py2.7.egg/django/forms/fields'
p827
sg12
g13
(g14
g15
NtRp828
(dp829
g18
I1
sg19
I0
sg20
I676
sg21
I0
sg22
I0
sg23
I443
sg24
I0
sbssg25
S'\xefx)E\x1f=\xde\xbf\xb8\x0f\xc9\xbe\xa6\xf6X\x9b'
p830
ssS'_home_deanna_django-deanna_lib_python2_7_site-packages_Django-1_7_4-py2_7_egg_django_contrib_sites___init__'
p831
(dp832
g6
(dp833
g48
S'_home_deanna_django-deanna_lib_python2_7_site-packages_Django-1_7_4-py2_7_egg_django_contrib_sites___init__.html'
p834
sg50
S'/home/deanna/django-deanna/lib/python2.7/site-packages/Django-1.7.4-py2.7.egg/django/contrib/sites/__init__'
p835
sg52
g13
(g14
g15
NtRp836
(dp837
g18
I1
sg19
I0
sg20
I1
sg21
I0
sg22
I0
sg23
I0
sg24
I0
sbssg25
S'\xc8"\xd2h\'\xe2C\x8b]\x17\x05\xd8?\x153}'
p838
ssS'_home_deanna_django-deanna_lib_python2_7_site-packages_Django-1_7_4-py2_7_egg_django_contrib_comments_apps'
p839
(dp840
g6
(dp841
g48
S'_home_deanna_django-deanna_lib_python2_7_site-packages_Django-1_7_4-py2_7_egg_django_contrib_comments_apps.html'
p842
sg50
S'/home/deanna/django-deanna/lib/python2.7/site-packages/Django-1.7.4-py2.7.egg/django/contrib/comments/apps'
p843
sg52
g13
(g14
g15
NtRp844
(dp845
g18
I1
sg19
I0
sg20
I5
sg21
I0
sg22
I0
sg23
I0
sg24
I0
sbssg25
S'\x9f\x19X\xad3404:\x02\xe4R\x99\x84\xe0\x06'
p846
ssS'_home_deanna_django-deanna_lib_python2_7_site-packages_Django-1_7_4-py2_7_egg_django_core_cache_backends_locmem'
p847
(dp848
g6
(dp849
g48
S'_home_deanna_django-deanna_lib_python2_7_site-packages_Django-1_7_4-py2_7_egg_django_core_cache_backends_locmem.html'
p850
sg50
S'/home/deanna/django-deanna/lib/python2.7/site-packages/Django-1.7.4-py2.7.egg/django/core/cache/backends/locmem'
p851
sg52
g13
(g14
g15
NtRp852
(dp853
g18
I1
sg19
I0
sg20
I108
sg21
I0
sg22
I0
sg23
I81
sg24
I0
sbssg25
S"\x04'\x07\x06I\x0e\xa96G\xd8\x94w\x0b\x08Z\xe9"
p854
ssS'_home_deanna_django-deanna_lib_python2_7_site-packages_Django-1_7_4-py2_7_egg_django_db_backends_signals'
p855
(dp856
g6
(dp857
g48
S'_home_deanna_django-deanna_lib_python2_7_site-packages_Django-1_7_4-py2_7_egg_django_db_backends_signals.html'
p858
sg50
S'/home/deanna/django-deanna/lib/python2.7/site-packages/Django-1.7.4-py2.7.egg/django/db/backends/signals'
p859
sg52
g13
(g14
g15
NtRp860
(dp861
g18
I1
sg19
I0
sg20
I2
sg21
I0
sg22
I0
sg23
I0
sg24
I0
sbssg25
S'\xd0\x7fA\xfb\xdfoE\xbc.\x17\x18\xd7\xa5\xbf\x04\xe4'
p862
ssS'_home_deanna_django-deanna_lib_python2_7_site-packages_Django-1_7_4-py2_7_egg_django_db_migrations_operations_fields'
p863
(dp864
g6
(dp865
g48
S'_home_deanna_django-deanna_lib_python2_7_site-packages_Django-1_7_4-py2_7_egg_django_db_migrations_operations_fields.html'
p866
sg50
S'/home/deanna/django-deanna/lib/python2.7/site-packages/Django-1.7.4-py2.7.egg/django/db/migrations/operations/fields'
p867
sg52
g13
(g14
g15
NtRp868
(dp869
g18
I1
sg19
I0
sg20
I128
sg21
I0
sg22
I0
sg23
I60
sg24
I0
sbssg25
S'T$\xdd\x13\xcfp\x01\x82*\x06\x03\x0b$\x97\xe8&'
p870
ssS'_home_deanna_django-deanna_lib_python2_7_site-packages_Django-1_7_4-py2_7_egg_django_apps___init__'
p871
(dp872
g6
(dp873
g48
S'_home_deanna_django-deanna_lib_python2_7_site-packages_Django-1_7_4-py2_7_egg_django_apps___init__.html'
p874
sg50
S'/home/deanna/django-deanna/lib/python2.7/site-packages/Django-1.7.4-py2.7.egg/django/apps/__init__'
p875
sg52
g13
(g14
g15
NtRp876
(dp877
g18
I1
sg19
I0
sg20
I2
sg21
I0
sg22
I0
sg23
I0
sg24
I0
sbssg25
S'\xaf\xd5\x87SN\x8c\x98\xdfl\xc6\x14\xe6\x0eO\xf7\x0c'
p878
ssS'_home_deanna_django-deanna_lib_python2_7_site-packages_Django-1_7_4-py2_7_egg_django_core_wsgi'
p879
(dp880
g6
(dp881
g48
S'_home_deanna_django-deanna_lib_python2_7_site-packages_Django-1_7_4-py2_7_egg_django_core_wsgi.html'
p882
sg50
S'/home/deanna/django-deanna/lib/python2.7/site-packages/Django-1.7.4-py2.7.egg/django/core/wsgi'
p883
sg52
g13
(g14
g15
NtRp884
(dp885
g18
I1
sg19
I0
sg20
I5
sg21
I0
sg22
I0
sg23
I2
sg24
I0
sbssg25
S'\xcb\xa3\x0c\x90\xbe|\xe5}\x13v\x9f[m\xed\x86\xda'
p886
ssS'_home_deanna_django-deanna_lib_python2_7_site-packages_Django-1_7_4-py2_7_egg_django_core_serializers___init__'
p887
(dp888
g6
(dp889
g48
S'_home_deanna_django-deanna_lib_python2_7_site-packages_Django-1_7_4-py2_7_egg_django_core_serializers___init__.html'
p890
sg50
S'/home/deanna/django-deanna/lib/python2.7/site-packages/Django-1.7.4-py2.7.egg/django/core/serializers/__init__'
p891
sg52
g13
(g14
g15
NtRp892
(dp893
g18
I1
sg19
I0
sg20
I64
sg21
I0
sg22
I0
sg23
I22
sg24
I0
sbssg25
S"\x82\x1e\xd2\xd0<\xf5'\xc3Z\xb7\x83X\x1f&\x92\xac"
p894
ssS'_home_deanna_django-deanna_lib_python2_7_site-packages_tastypie_migrations_0001_initial'
p895
(dp896
g6
(dp897
g48
S'_home_deanna_django-deanna_lib_python2_7_site-packages_tastypie_migrations_0001_initial.html'
p898
sg50
S'/home/deanna/django-deanna/lib/python2.7/site-packages/tastypie/migrations/0001_initial'
p899
sg52
g13
(g14
g15
NtRp900
(dp901
g18
I1
sg19
I0
sg20
I7
sg21
I0
sg22
I0
sg23
I0
sg24
I0
sbssg25
S'g\x8e>Hq\x04!\xd0\xb8\x1fi\xbbI\x8fl\x1b'
p902
ssS'_home_deanna_django-deanna_lib_python2_7_site-packages_Django-1_7_4-py2_7_egg_django_contrib_messages_storage_session'
p903
(dp904
g29
(dp905
g8
S'_home_deanna_django-deanna_lib_python2_7_site-packages_Django-1_7_4-py2_7_egg_django_contrib_messages_storage_session.html'
p906
sg10
S'/home/deanna/django-deanna/lib/python2.7/site-packages/Django-1.7.4-py2.7.egg/django/contrib/messages/storage/session'
p907
sg12
g13
(g14
g15
NtRp908
(dp909
g18
I1
sg19
I0
sg20
I23
sg21
I0
sg22
I0
sg23
I10
sg24
I0
sbssg35
S'\xa3\x90\x83\xacq*\x12\xe6p\x08\xd68\xb7\x1f\x97\xf7'
p910
ssS'_home_deanna_django-deanna_lib_python2_7_site-packages_Django-1_7_4-py2_7_egg_django_forms_widgets'
p911
(dp912
g6
(dp913
g48
S'_home_deanna_django-deanna_lib_python2_7_site-packages_Django-1_7_4-py2_7_egg_django_forms_widgets.html'
p914
sg50
S'/home/deanna/django-deanna/lib/python2.7/site-packages/Django-1.7.4-py2.7.egg/django/forms/widgets'
p915
sg52
g13
(g14
g15
NtRp916
(dp917
g18
I1
sg19
I0
sg20
I508
sg21
I0
sg22
I0
sg23
I304
sg24
I0
sbssg25
S'V^\xa4@/\x17P\x12`E(\x93\xd7XU\x1b'
p918
ssS'_home_deanna_django-deanna_lib_python2_7_site-packages_Django-1_7_4-py2_7_egg_django_core_checks___init__'
p919
(dp920
g6
(dp921
g48
S'_home_deanna_django-deanna_lib_python2_7_site-packages_Django-1_7_4-py2_7_egg_django_core_checks___init__.html'
p922
sg50
S'/home/deanna/django-deanna/lib/python2.7/site-packages/Django-1.7.4-py2.7.egg/django/core/checks/__init__'
p923
sg52
g13
(g14
g15
NtRp924
(dp925
g18
I1
sg19
I0
sg20
I7
sg21
I0
sg22
I0
sg23
I0
sg24
I0
sbssg25
S'X\xb2\r|\x19\x80\x9d\x00H\xa3\x06n\x8a\xa6\x90\xa1'
p926
ssS'_home_deanna_django-deanna_lib_python2_7_site-packages_Django-1_7_4-py2_7_egg_django_middleware_common'
p927
(dp928
g29
(dp929
g8
S'_home_deanna_django-deanna_lib_python2_7_site-packages_Django-1_7_4-py2_7_egg_django_middleware_common.html'
p930
sg10
S'/home/deanna/django-deanna/lib/python2.7/site-packages/Django-1.7.4-py2.7.egg/django/middleware/common'
p931
sg12
g13
(g14
g15
NtRp932
(dp933
g18
I1
sg19
I0
sg20
I78
sg21
I0
sg22
I0
sg23
I47
sg24
I0
sbssg35
S'\rw\xad\xeb\xdb\x1b\x99\x98\xc6\xa4\x8b:\x7f;\x03\xe6'
p934
ssS'django_test___init__'
p935
(dp936
g6
(dp937
g48
S'django_test___init__.html'
p938
sg50
S'django_test/__init__'
p939
sg52
g13
(g14
g15
NtRp940
(dp941
g18
I1
sg19
I0
sg20
I0
sg21
I0
sg22
I0
sg23
I0
sg24
I0
sbssg25
S'\xca\xf5\x9f\x7f\x88\xdfa\x831|T\x1d\xbc}\xa5v'
p942
ssS'_home_deanna_django-deanna_lib_python2_7_site-packages_tastypie_resources'
p943
(dp944
g29
(dp945
g8
S'_home_deanna_django-deanna_lib_python2_7_site-packages_tastypie_resources.html'
p946
sg10
S'/home/deanna/django-deanna/lib/python2.7/site-packages/tastypie/resources'
p947
sg12
g13
(g14
g15
NtRp948
(dp949
g18
I1
sg19
I0
sg20
I1089
sg21
I0
sg22
I0
sg23
I795
sg24
I0
sbssg35
S'\x91)\xe0\xfb\x96\x06\xda"j\xad\xddC u\xb4*'
p950
ssS'_home_deanna_django-deanna_lib_python2_7_site-packages_Django-1_7_4-py2_7_egg_django_template_response'
p951
(dp952
g6
(dp953
g48
S'_home_deanna_django-deanna_lib_python2_7_site-packages_Django-1_7_4-py2_7_egg_django_template_response.html'
p954
sg50
S'/home/deanna/django-deanna/lib/python2.7/site-packages/Django-1.7.4-py2.7.egg/django/template/response'
p955
sg52
g13
(g14
g15
NtRp956
(dp957
g18
I1
sg19
I0
sg20
I72
sg21
I0
sg22
I0
sg23
I50
sg24
I0
sbssg25
S'\xe0o]\x1f\x01\x1b7,*\x93+\xff\x96=i\x83'
p958
ssS'_home_deanna_django-deanna_lib_python2_7_site-packages_Django-1_7_4-py2_7_egg_django_db_backends_sqlite3___init__'
p959
(dp960
g6
(dp961
g48
S'_home_deanna_django-deanna_lib_python2_7_site-packages_Django-1_7_4-py2_7_egg_django_db_backends_sqlite3___init__.html'
p962
sg50
S'/home/deanna/django-deanna/lib/python2.7/site-packages/Django-1.7.4-py2.7.egg/django/db/backends/sqlite3/__init__'
p963
sg52
g13
(g14
g15
NtRp964
(dp965
g18
I1
sg19
I0
sg20
I0
sg21
I0
sg22
I0
sg23
I0
sg24
I0
sbssg25
S'\xca\xf5\x9f\x7f\x88\xdfa\x831|T\x1d\xbc}\xa5v'
p966
ssS'_home_deanna_django-deanna_lib_python2_7_site-packages_Django-1_7_4-py2_7_egg_django_test_html'
p967
(dp968
g6
(dp969
g48
S'_home_deanna_django-deanna_lib_python2_7_site-packages_Django-1_7_4-py2_7_egg_django_test_html.html'
p970
sg50
S'/home/deanna/django-deanna/lib/python2.7/site-packages/Django-1.7.4-py2.7.egg/django/test/html'
p971
sg52
g13
(g14
g15
NtRp972
(dp973
g18
I1
sg19
I0
sg20
I167
sg21
I0
sg22
I0
sg23
I128
sg24
I0
sbssg25
S'\xc1wD\x836\xc5uF\x9a\xd0\x7f\x9c\xe1\xbe\x8em'
p974
ssS'_home_deanna_django-deanna_lib_python2_7_site-packages_Django-1_7_4-py2_7_egg_django_contrib_messages_api'
p975
(dp976
g6
(dp977
g48
S'_home_deanna_django-deanna_lib_python2_7_site-packages_Django-1_7_4-py2_7_egg_django_contrib_messages_api.html'
p978
sg50
S'/home/deanna/django-deanna/lib/python2.7/site-packages/Django-1.7.4-py2.7.egg/django/contrib/messages/api'
p979
sg52
g13
(g14
g15
NtRp980
(dp981
g18
I1
sg19
I0
sg20
I37
sg21
I0
sg22
I0
sg23
I22
sg24
I0
sbssg25
S'\xec\x0f\xcf\xdc\xaf\x19\x7f]\x05RjO\x0et\x04\x8f'
p982
ssS'_home_deanna_django-deanna_lib_python2_7_site-packages_Django-1_7_4-py2_7_egg_django_contrib_admin_decorators'
p983
(dp984
g6
(dp985
g48
S'_home_deanna_django-deanna_lib_python2_7_site-packages_Django-1_7_4-py2_7_egg_django_contrib_admin_decorators.html'
p986
sg50
S'/home/deanna/django-deanna/lib/python2.7/site-packages/Django-1.7.4-py2.7.egg/django/contrib/admin/decorators'
p987
sg52
g13
(g14
g15
NtRp988
(dp989
g18
I1
sg19
I0
sg20
I12
sg21
I0
sg22
I0
sg23
I11
sg24
I0
sbssg25
S']\xe7^2}\xff\xf9\x13R\x9eeQ\xba8\xdeV'
p990
ssS'_home_deanna_django-deanna_lib_python2_7_site-packages_Django-1_7_4-py2_7_egg_django_db_backends_sqlite3_schema'
p991
(dp992
g6
(dp993
g48
S'_home_deanna_django-deanna_lib_python2_7_site-packages_Django-1_7_4-py2_7_egg_django_db_backends_sqlite3_schema.html'
p994
sg50
S'/home/deanna/django-deanna/lib/python2.7/site-packages/Django-1.7.4-py2.7.egg/django/db/backends/sqlite3/schema'
p995
sg52
g13
(g14
g15
NtRp996
(dp997
g18
I1
sg19
I0
sg20
I112
sg21
I0
sg22
I0
sg23
I39
sg24
I0
sbssg25
S'\xa6\x14#Wf\x87a#\xd3E\xe3Dj\xefTm'
p998
ssS'_home_deanna_django-deanna_lib_python2_7_site-packages_Django-1_7_4-py2_7_egg_django_test_client'
p999
(dp1000
g6
(dp1001
g8
S'_home_deanna_django-deanna_lib_python2_7_site-packages_Django-1_7_4-py2_7_egg_django_test_client.html'
p1002
sg10
S'/home/deanna/django-deanna/lib/python2.7/site-packages/Django-1.7.4-py2.7.egg/django/test/client'
p1003
sg12
g13
(g14
g15
NtRp1004
(dp1005
g18
I1
sg19
I0
sg20
I292
sg21
I0
sg22
I0
sg23
I143
sg24
I0
sbssg25
S'\x0c\x91\x81\xe9`\x04\xff;{\x7f\xa2<\x90\x8f_\xb1'
p1006
ssS'_home_deanna_django-deanna_lib_python2_7_site-packages_Django-1_7_4-py2_7_egg_django_forms_formsets'
p1007
(dp1008
g6
(dp1009
g48
S'_home_deanna_django-deanna_lib_python2_7_site-packages_Django-1_7_4-py2_7_egg_django_forms_formsets.html'
p1010
sg50
S'/home/deanna/django-deanna/lib/python2.7/site-packages/Django-1.7.4-py2.7.egg/django/forms/formsets'
p1011
sg52
g13
(g14
g15
NtRp1012
(dp1013
g18
I1
sg19
I0
sg20
I221
sg21
I0
sg22
I0
sg23
I160
sg24
I0
sbssg25
S';\xcc\xcaO\x97\xb8\xc4t\xa6\xfc_7\xf2\x81\nM'
p1014
ssS'_home_deanna_django-deanna_lib_python2_7_site-packages_Django-1_7_4-py2_7_egg_django_core_management_commands_createcachetable'
p1015
(dp1016
g6
(dp1017
g48
S'_home_deanna_django-deanna_lib_python2_7_site-packages_Django-1_7_4-py2_7_egg_django_core_management_commands_createcachetable.html'
p1018
sg50
S'/home/deanna/django-deanna/lib/python2.7/site-packages/Django-1.7.4-py2.7.egg/django/core/management/commands/createcachetable'
p1019
sg52
g13
(g14
g15
NtRp1020
(dp1021
g18
I1
sg19
I0
sg20
I60
sg21
I0
sg22
I0
sg23
I40
sg24
I0
sbssg25
S'\xa1BWa\x1b\t\xcd-\xb0pp\xc9\xdaQ -'
p1022
ssS'_home_deanna_django-deanna_lib_python2_7_site-packages_Django-1_7_4-py2_7_egg_django_db_backends_schema'
p1023
(dp1024
g6
(dp1025
g48
S'_home_deanna_django-deanna_lib_python2_7_site-packages_Django-1_7_4-py2_7_egg_django_db_backends_schema.html'
p1026
sg50
S'/home/deanna/django-deanna/lib/python2.7/site-packages/Django-1.7.4-py2.7.egg/django/db/backends/schema'
p1027
sg52
g13
(g14
g15
NtRp1028
(dp1029
g18
I1
sg19
I0
sg20
I405
sg21
I0
sg22
I0
sg23
I234
sg24
I0
sbssg25
S'$o\xd7\xb6>s\x14\x98\xa2\\\x8bHFO\xc1R'
p1030
ssS'_home_deanna_django-deanna_lib_python2_7_site-packages_Django-1_7_4-py2_7_egg_django_contrib_sites_models'
p1031
(dp1032
g6
(dp1033
g48
S'_home_deanna_django-deanna_lib_python2_7_site-packages_Django-1_7_4-py2_7_egg_django_contrib_sites_models.html'
p1034
sg50
S'/home/deanna/django-deanna/lib/python2.7/site-packages/Django-1.7.4-py2.7.egg/django/contrib/sites/models'
p1035
sg52
g13
(g14
g15
NtRp1036
(dp1037
g18
I1
sg19
I0
sg20
I60
sg21
I0
sg22
I0
sg23
I21
sg24
I0
sbssg25
S'D`\xaf\xe8\xd2\x8f\xfd\x80\x8f\xa8+\xd9n\x00\xf9\xc3'
p1038
ssS'_home_deanna_django-deanna_lib_python2_7_site-packages_Django-1_7_4-py2_7_egg_django_core_mail___init__'
p1039
(dp1040
g6
(dp1041
g48
S'_home_deanna_django-deanna_lib_python2_7_site-packages_Django-1_7_4-py2_7_egg_django_core_mail___init__.html'
p1042
sg50
S'/home/deanna/django-deanna/lib/python2.7/site-packages/Django-1.7.4-py2.7.egg/django/core/mail/__init__'
p1043
sg52
g13
(g14
g15
NtRp1044
(dp1045
g18
I1
sg19
I0
sg20
I33
sg21
I0
sg22
I0
sg23
I22
sg24
I0
sbssg25
S'\xe9\xab\x14M=\x19?\x03\xec\xf3\xfa\x8b?\x02~\xd6'
p1046
ssS'_home_deanna_django-deanna_lib_python2_7_site-packages_Django-1_7_4-py2_7_egg_django_contrib_admin_templatetags___init__'
p1047
(dp1048
g6
(dp1049
g48
S'_home_deanna_django-deanna_lib_python2_7_site-packages_Django-1_7_4-py2_7_egg_django_contrib_admin_templatetags___init__.html'
p1050
sg50
S'/home/deanna/django-deanna/lib/python2.7/site-packages/Django-1.7.4-py2.7.egg/django/contrib/admin/templatetags/__init__'
p1051
sg52
g13
(g14
g15
NtRp1052
(dp1053
g18
I1
sg19
I0
sg20
I0
sg21
I0
sg22
I0
sg23
I0
sg24
I0
sbssg25
S'\xca\xf5\x9f\x7f\x88\xdfa\x831|T\x1d\xbc}\xa5v'
p1054
ssS'_home_deanna_django-deanna_lib_python2_7_site-packages_Django-1_7_4-py2_7_egg_django_dispatch___init__'
p1055
(dp1056
g6
(dp1057
g48
S'_home_deanna_django-deanna_lib_python2_7_site-packages_Django-1_7_4-py2_7_egg_django_dispatch___init__.html'
p1058
sg50
S'/home/deanna/django-deanna/lib/python2.7/site-packages/Django-1.7.4-py2.7.egg/django/dispatch/__init__'
p1059
sg52
g13
(g14
g15
NtRp1060
(dp1061
g18
I1
sg19
I0
sg20
I1
sg21
I0
sg22
I0
sg23
I0
sg24
I0
sbssg25
S'D\x18\xd9\x97? \x11\xf4^{\xf6U\x0e\xef\x7fZ'
p1062
ssS'_home_deanna_django-deanna_lib_python2_7_site-packages_tastypie_utils_mime'
p1063
(dp1064
g29
(dp1065
g8
S'_home_deanna_django-deanna_lib_python2_7_site-packages_tastypie_utils_mime.html'
p1066
sg10
S'/home/deanna/django-deanna/lib/python2.7/site-packages/tastypie/utils/mime'
p1067
sg12
g13
(g14
g15
NtRp1068
(dp1069
g18
I1
sg19
I0
sg20
I25
sg21
I0
sg22
I0
sg23
I20
sg24
I0
sbssg35
S'\xc3\x19\xa6\xa9\xcch\x9d:"\x86\x12\xc2\\\xf0\xc5W'
p1070
ssS'_home_deanna_django-deanna_lib_python2_7_site-packages_Django-1_7_4-py2_7_egg_django_utils_itercompat'
p1071
(dp1072
g6
(dp1073
g48
S'_home_deanna_django-deanna_lib_python2_7_site-packages_Django-1_7_4-py2_7_egg_django_utils_itercompat.html'
p1074
sg50
S'/home/deanna/django-deanna/lib/python2.7/site-packages/Django-1.7.4-py2.7.egg/django/utils/itercompat'
p1075
sg52
g13
(g14
g15
NtRp1076
(dp1077
g18
I1
sg19
I0
sg20
I6
sg21
I0
sg22
I0
sg23
I2
sg24
I0
sbssg25
S'3\xdb\xd1\x8c\x87z\xc1\tg?Z\xd6\x137+P'
p1078
ssS'_home_deanna_django-deanna_lib_python2_7_site-packages_Django-1_7_4-py2_7_egg_django_contrib_sessions_migrations_0001_initial'
p1079
(dp1080
g6
(dp1081
g48
S'_home_deanna_django-deanna_lib_python2_7_site-packages_Django-1_7_4-py2_7_egg_django_contrib_sessions_migrations_0001_initial.html'
p1082
sg50
S'/home/deanna/django-deanna/lib/python2.7/site-packages/Django-1.7.4-py2.7.egg/django/contrib/sessions/migrations/0001_initial'
p1083
sg52
g13
(g14
g15
NtRp1084
(dp1085
g18
I1
sg19
I0
sg20
I5
sg21
I0
sg22
I0
sg23
I0
sg24
I0
sbssg25
S'\x10\n\xc7|\xbbZ\xf3*s%\x91\x7f\xa7\xc4n\xb8'
p1086
ssS'_home_deanna_django-deanna_lib_python2_7_site-packages_tastypie_serializers'
p1087
(dp1088
g29
(dp1089
g8
S'_home_deanna_django-deanna_lib_python2_7_site-packages_tastypie_serializers.html'
p1090
sg10
S'/home/deanna/django-deanna/lib/python2.7/site-packages/tastypie/serializers'
p1091
sg12
g13
(g14
g15
NtRp1092
(dp1093
g18
I1
sg19
I0
sg20
I288
sg21
I0
sg22
I0
sg23
I225
sg24
I0
sbssg35
S'm\xc6f\xd6\n\x84Qd\xb1\x8f\xf53\xd6\xc0\x9b"'
p1094
ssS'_home_deanna_django-deanna_lib_python2_7_site-packages_Django-1_7_4-py2_7_egg_django_core_files_utils'
p1095
(dp1096
g6
(dp1097
g48
S'_home_deanna_django-deanna_lib_python2_7_site-packages_Django-1_7_4-py2_7_egg_django_core_files_utils.html'
p1098
sg50
S'/home/deanna/django-deanna/lib/python2.7/site-packages/Django-1.7.4-py2.7.egg/django/core/files/utils'
p1099
sg52
g13
(g14
g15
NtRp1100
(dp1101
g18
I1
sg19
I0
sg20
I19
sg21
I0
sg22
I0
sg23
I1
sg24
I0
sbssg25
S'\xf9\x11l\xd6u\x8d\xd2\xe3g\x05F\xd6{F\x15\xdc'
p1102
ssS'_home_deanna_django-deanna_lib_python2_7_site-packages_Django-1_7_4-py2_7_egg_django_utils_lru_cache'
p1103
(dp1104
g6
(dp1105
g8
S'_home_deanna_django-deanna_lib_python2_7_site-packages_Django-1_7_4-py2_7_egg_django_utils_lru_cache.html'
p1106
sg10
S'/home/deanna/django-deanna/lib/python2.7/site-packages/Django-1.7.4-py2.7.egg/django/utils/lru_cache'
p1107
sg12
g13
(g14
g15
NtRp1108
(dp1109
g18
I1
sg19
I0
sg20
I106
sg21
I0
sg22
I0
sg23
I19
sg24
I0
sbssg25
S'\xe1a\xe4\x88\x9c\x11\x0b%o\x06\x86\xbb\xf2\xf3+)'
p1110
ssS'_home_deanna_django-deanna_lib_python2_7_site-packages_Django-1_7_4-py2_7_egg_django_core_management___init__'
p1111
(dp1112
g6
(dp1113
g48
S'_home_deanna_django-deanna_lib_python2_7_site-packages_Django-1_7_4-py2_7_egg_django_core_management___init__.html'
p1114
sg50
S'/home/deanna/django-deanna/lib/python2.7/site-packages/Django-1.7.4-py2.7.egg/django/core/management/__init__'
p1115
sg52
g13
(g14
g15
NtRp1116
(dp1117
g18
I1
sg19
I0
sg20
I173
sg21
I0
sg22
I0
sg23
I79
sg24
I0
sbssg25
S' \xcc\xcd\xf2\xacc\x93\x90\xa5"\xa9b\xe1vO\x7f'
p1118
ssS'_home_deanna_django-deanna_lib_python2_7_site-packages_Django-1_7_4-py2_7_egg_django_core_serializers_python'
p1119
(dp1120
g6
(dp1121
g48
S'_home_deanna_django-deanna_lib_python2_7_site-packages_Django-1_7_4-py2_7_egg_django_core_serializers_python.html'
p1122
sg50
S'/home/deanna/django-deanna/lib/python2.7/site-packages/Django-1.7.4-py2.7.egg/django/core/serializers/python'
p1123
sg52
g13
(g14
g15
NtRp1124
(dp1125
g18
I1
sg19
I0
sg20
I89
sg21
I0
sg22
I0
sg23
I58
sg24
I0
sbssg25
S'\xa7\xda\x9d\x9f\xfa<y\x97\tmg\xb4\xe0\xceX\x9c'
p1126
ssS'_home_deanna_django-deanna_lib_python2_7_site-packages_tastypie_utils_formatting'
p1127
(dp1128
g6
(dp1129
g48
S'_home_deanna_django-deanna_lib_python2_7_site-packages_tastypie_utils_formatting.html'
p1130
sg50
S'/home/deanna/django-deanna/lib/python2.7/site-packages/tastypie/utils/formatting'
p1131
sg52
g13
(g14
g15
NtRp1132
(dp1133
g18
I1
sg19
I0
sg20
I19
sg21
I0
sg22
I0
sg23
I8
sg24
I0
sbssg25
S'?\xdb\x0b{(\x1fG]^x\xa8\xb6\x06\xe0\x04\x0c'
p1134
ssS'_home_deanna_django-deanna_lib_python2_7_site-packages_Django-1_7_4-py2_7_egg_django_core_cache_backends_base'
p1135
(dp1136
g6
(dp1137
g8
S'_home_deanna_django-deanna_lib_python2_7_site-packages_Django-1_7_4-py2_7_egg_django_core_cache_backends_base.html'
p1138
sg10
S'/home/deanna/django-deanna/lib/python2.7/site-packages/Django-1.7.4-py2.7.egg/django/core/cache/backends/base'
p1139
sg12
g13
(g14
g15
NtRp1140
(dp1141
g18
I1
sg19
I0
sg20
I108
sg21
I0
sg22
I0
sg23
I57
sg24
I0
sbssg25
S'C\xe7\xe9z\x9f\x119\x1b\x96\xc3X\xcah\xfbm\xc4'
p1142
ssS'_home_deanna_django-deanna_lib_python2_7_site-packages_Django-1_7_4-py2_7_egg_django_utils_deconstruct'
p1143
(dp1144
g6
(dp1145
g48
S'_home_deanna_django-deanna_lib_python2_7_site-packages_Django-1_7_4-py2_7_egg_django_utils_deconstruct.html'
p1146
sg50
S'/home/deanna/django-deanna/lib/python2.7/site-packages/Django-1.7.4-py2.7.egg/django/utils/deconstruct'
p1147
sg52
g13
(g14
g15
NtRp1148
(dp1149
g18
I1
sg19
I0
sg20
I24
sg21
I0
sg22
I0
sg23
I9
sg24
I0
sbssg25
S'\xa0gQ\xd6C\xb1\xfa\xd1\xe75\xa9\x0c3\xa4\xe7$'
p1150
ssS'_home_deanna_django-deanna_lib_python2_7_site-packages_Django-1_7_4-py2_7_egg_django_test_testcases'
p1151
(dp1152
g6
(dp1153
g48
S'_home_deanna_django-deanna_lib_python2_7_site-packages_Django-1_7_4-py2_7_egg_django_test_testcases.html'
p1154
sg50
S'/home/deanna/django-deanna/lib/python2.7/site-packages/Django-1.7.4-py2.7.egg/django/test/testcases'
p1155
sg52
g13
(g14
g15
NtRp1156
(dp1157
g18
I1
sg19
I0
sg20
I604
sg21
I0
sg22
I0
sg23
I409
sg24
I0
sbssg25
S'\xd94\x00\xf4e\xf8\x8f\x1b\xf2\x02\x80\xc5M\xff\xb5\xbe'
p1158
ssS'_home_deanna_django-deanna_lib_python2_7_site-packages_tastypie_migrations___init__'
p1159
(dp1160
g6
(dp1161
g48
S'_home_deanna_django-deanna_lib_python2_7_site-packages_tastypie_migrations___init__.html'
p1162
sg50
S'/home/deanna/django-deanna/lib/python2.7/site-packages/tastypie/migrations/__init__'
p1163
sg52
g13
(g14
g15
NtRp1164
(dp1165
g18
I1
sg19
I0
sg20
I0
sg21
I0
sg22
I0
sg23
I0
sg24
I0
sbssg25
S'\xca\xf5\x9f\x7f\x88\xdfa\x831|T\x1d\xbc}\xa5v'
p1166
ssS'_home_deanna_django-deanna_lib_python2_7_site-packages_Django-1_7_4-py2_7_egg_django_template_smartif'
p1167
(dp1168
g6
(dp1169
g8
S'_home_deanna_django-deanna_lib_python2_7_site-packages_Django-1_7_4-py2_7_egg_django_template_smartif.html'
p1170
sg10
S'/home/deanna/django-deanna/lib/python2.7/site-packages/Django-1.7.4-py2.7.egg/django/template/smartif'
p1171
sg12
g13
(g14
g15
NtRp1172
(dp1173
g18
I1
sg19
I0
sg20
I104
sg21
I0
sg22
I0
sg23
I23
sg24
I0
sbssg25
S"t$\xd4\xbe\xcaYV'{\x03\x1d\x15\x9c\x0e\x86\x95"
p1174
ssS'article_tests'
p1175
(dp1176
g6
(dp1177
g8
S'article_tests.html'
p1178
sg10
S'article/tests'
p1179
sg12
g13
(g14
g15
NtRp1180
(dp1181
g18
I1
sg19
I0
sg20
I30
sg21
I0
sg22
I0
sg23
I0
sg24
I0
sbssg25
S'\x8a1\x1b[\x80\xda%\x1a U\\\x1c\xc9\xd1\x84\xd6'
p1182
ssS'_home_deanna_django-deanna_lib_python2_7_site-packages_Django-1_7_4-py2_7_egg_django_utils_html_parser'
p1183
(dp1184
g6
(dp1185
g48
S'_home_deanna_django-deanna_lib_python2_7_site-packages_Django-1_7_4-py2_7_egg_django_utils_html_parser.html'
p1186
sg50
S'/home/deanna/django-deanna/lib/python2.7/site-packages/Django-1.7.4-py2.7.egg/django/utils/html_parser'
p1187
sg52
g13
(g14
g15
NtRp1188
(dp1189
g18
I1
sg19
I0
sg20
I86
sg21
I0
sg22
I0
sg23
I77
sg24
I0
sbssg25
S'p\x94\x8f!\xe5`\x89\x10\xf8R\xf2\xd7@~\xc1\xc9'
p1190
ssS'_home_deanna_django-deanna_lib_python2_7_site-packages_Django-1_7_4-py2_7_egg_django_contrib_comments_views_utils'
p1191
(dp1192
g6
(dp1193
g48
S'_home_deanna_django-deanna_lib_python2_7_site-packages_Django-1_7_4-py2_7_egg_django_contrib_comments_views_utils.html'
p1194
sg50
S'/home/deanna/django-deanna/lib/python2.7/site-packages/Django-1.7.4-py2.7.egg/django/contrib/comments/views/utils'
p1195
sg52
g13
(g14
g15
NtRp1196
(dp1197
g18
I1
sg19
I0
sg20
I32
sg21
I0
sg22
I0
sg23
I19
sg24
I0
sbssg25
S'\xfby\x06z#\xc4\x95]pY\x04\xad\xf8s\x84\xaf'
p1198
ssS'_home_deanna_django-deanna_lib_python2_7_site-packages_Django-1_7_4-py2_7_egg_django_contrib_sessions_migrations___init__'
p1199
(dp1200
g6
(dp1201
g48
S'_home_deanna_django-deanna_lib_python2_7_site-packages_Django-1_7_4-py2_7_egg_django_contrib_sessions_migrations___init__.html'
p1202
sg50
S'/home/deanna/django-deanna/lib/python2.7/site-packages/Django-1.7.4-py2.7.egg/django/contrib/sessions/migrations/__init__'
p1203
sg52
g13
(g14
g15
NtRp1204
(dp1205
g18
I1
sg19
I0
sg20
I0
sg21
I0
sg22
I0
sg23
I0
sg24
I0
sbssg25
S'\xca\xf5\x9f\x7f\x88\xdfa\x831|T\x1d\xbc}\xa5v'
p1206
ssS'_home_deanna_django-deanna_lib_python2_7_site-packages_mimeparse'
p1207
(dp1208
g29
(dp1209
g8
S'_home_deanna_django-deanna_lib_python2_7_site-packages_mimeparse.html'
p1210
sg10
S'/home/deanna/django-deanna/lib/python2.7/site-packages/mimeparse'
p1211
sg12
g13
(g14
g15
NtRp1212
(dp1213
g18
I1
sg19
I0
sg20
I54
sg21
I0
sg22
I0
sg23
I41
sg24
I0
sbssg35
S'\x00\xa8;#\xfaZ\xff\xf0\xdaK\xf9\xf8\xd3\xb8\x81\xf3'
p1214
ssS'_home_deanna_django-deanna_lib_python2_7_site-packages_Django-1_7_4-py2_7_egg_django_views___init__'
p1215
(dp1216
g6
(dp1217
g48
S'_home_deanna_django-deanna_lib_python2_7_site-packages_Django-1_7_4-py2_7_egg_django_views___init__.html'
p1218
sg50
S'/home/deanna/django-deanna/lib/python2.7/site-packages/Django-1.7.4-py2.7.egg/django/views/__init__'
p1219
sg52
g13
(g14
g15
NtRp1220
(dp1221
g18
I1
sg19
I0
sg20
I0
sg21
I0
sg22
I0
sg23
I0
sg24
I0
sbssg25
S'\xca\xf5\x9f\x7f\x88\xdfa\x831|T\x1d\xbc}\xa5v'
p1222
ssS'_home_deanna_django-deanna_lib_python2_7_site-packages_Django-1_7_4-py2_7_egg_django_views_decorators_debug'
p1223
(dp1224
g6
(dp1225
g48
S'_home_deanna_django-deanna_lib_python2_7_site-packages_Django-1_7_4-py2_7_egg_django_views_decorators_debug.html'
p1226
sg50
S'/home/deanna/django-deanna/lib/python2.7/site-packages/Django-1.7.4-py2.7.egg/django/views/decorators/debug'
p1227
sg52
g13
(g14
g15
NtRp1228
(dp1229
g18
I1
sg19
I0
sg20
I21
sg21
I0
sg22
I0
sg23
I13
sg24
I0
sbssg25
S'I\x8e\xa5 \xf8\xe3\x9d\x0f\xa4\xa7W+\xde\xa3z\xc6'
p1230
ssS'_home_deanna_django-deanna_lib_python2_7_site-packages_Django-1_7_4-py2_7_egg_django_contrib_admin_exceptions'
p1231
(dp1232
g6
(dp1233
g48
S'_home_deanna_django-deanna_lib_python2_7_site-packages_Django-1_7_4-py2_7_egg_django_contrib_admin_exceptions.html'
p1234
sg50
S'/home/deanna/django-deanna/lib/python2.7/site-packages/Django-1.7.4-py2.7.egg/django/contrib/admin/exceptions'
p1235
sg52
g13
(g14
g15
NtRp1236
(dp1237
g18
I1
sg19
I0
sg20
I5
sg21
I0
sg22
I0
sg23
I0
sg24
I0
sbssg25
S'M \xcd\x88l\xc5A\x88\x80\xbd\xc1\x08\xd9\x9b\xf88'
p1238
ssS'_home_deanna_django-deanna_lib_python2_7_site-packages_Django-1_7_4-py2_7_egg_django_utils_importlib'
p1239
(dp1240
g29
(dp1241
g8
S'_home_deanna_django-deanna_lib_python2_7_site-packages_Django-1_7_4-py2_7_egg_django_utils_importlib.html'
p1242
sg10
S'/home/deanna/django-deanna/lib/python2.7/site-packages/Django-1.7.4-py2.7.egg/django/utils/importlib'
p1243
sg12
g13
(g14
g15
NtRp1244
(dp1245
g18
I1
sg19
I0
sg20
I29
sg21
I0
sg22
I0
sg23
I21
sg24
I0
sbssg35
S'C\xa9\x85_\x94\xae\xc0\xacT\x03<\r\xfdP\x00>'
p1246
ssS'_home_deanna_django-deanna_lib_python2_7_site-packages_Django-1_7_4-py2_7_egg_django_contrib_comments___init__'
p1247
(dp1248
g6
(dp1249
g48
S'_home_deanna_django-deanna_lib_python2_7_site-packages_Django-1_7_4-py2_7_egg_django_contrib_comments___init__.html'
p1250
sg50
S'/home/deanna/django-deanna/lib/python2.7/site-packages/Django-1.7.4-py2.7.egg/django/contrib/comments/__init__'
p1251
sg52
g13
(g14
g15
NtRp1252
(dp1253
g18
I1
sg19
I0
sg20
I44
sg21
I0
sg22
I0
sg23
I21
sg24
I0
sbssg25
S'P\xef\xf0\xc1\xd3\xe6\x85F\xea\x0f\x99\xe6\x9a7\xa0,'
p1254
ssS'_home_deanna_django-deanna_lib_python2_7_site-packages_Django-1_7_4-py2_7_egg_django_apps_config'
p1255
(dp1256
g6
(dp1257
g48
S'_home_deanna_django-deanna_lib_python2_7_site-packages_Django-1_7_4-py2_7_egg_django_apps_config.html'
p1258
sg50
S'/home/deanna/django-deanna/lib/python2.7/site-packages/Django-1.7.4-py2.7.egg/django/apps/config'
p1259
sg52
g13
(g14
g15
NtRp1260
(dp1261
g18
I1
sg19
I0
sg20
I84
sg21
I0
sg22
I0
sg23
I23
sg24
I0
sbssg25
S'\xa5}\xd0\xbcI|\xc2\xf4^\x8b\xcb#X\xf2\xd7\xea'
p1262
ssS'_home_deanna_django-deanna_lib_python2_7_site-packages_Django-1_7_4-py2_7_egg_django_db_migrations_operations___init__'
p1263
(dp1264
g6
(dp1265
g48
S'_home_deanna_django-deanna_lib_python2_7_site-packages_Django-1_7_4-py2_7_egg_django_db_migrations_operations___init__.html'
p1266
sg50
S'/home/deanna/django-deanna/lib/python2.7/site-packages/Django-1.7.4-py2.7.egg/django/db/migrations/operations/__init__'
p1267
sg52
g13
(g14
g15
NtRp1268
(dp1269
g18
I1
sg19
I0
sg20
I4
sg21
I0
sg22
I0
sg23
I0
sg24
I0
sbssg25
S'\x80!\xfc?\xf5\xe6\xab)\xd4\xad8\x02\x86s\x0f<'
p1270
ssS'_home_deanna_django-deanna_lib_python2_7_site-packages_Django-1_7_4-py2_7_egg_django_db_models_query_utils'
p1271
(dp1272
g6
(dp1273
g48
S'_home_deanna_django-deanna_lib_python2_7_site-packages_Django-1_7_4-py2_7_egg_django_db_models_query_utils.html'
p1274
sg50
S'/home/deanna/django-deanna/lib/python2.7/site-packages/Django-1.7.4-py2.7.egg/django/db/models/query_utils'
p1275
sg52
g13
(g14
g15
NtRp1276
(dp1277
g18
I1
sg19
I0
sg20
I104
sg21
I0
sg22
I0
sg23
I75
sg24
I0
sbssg25
S'\xc1d\xcd\xc9I`\xca\x11\xac\x83\x07\x1d\xbab\xf6\xfe'
p1278
ssS'_home_deanna_django-deanna_lib_python2_7_site-packages_Django-1_7_4-py2_7_egg_django_views_decorators_csrf'
p1279
(dp1280
g6
(dp1281
g8
S'_home_deanna_django-deanna_lib_python2_7_site-packages_Django-1_7_4-py2_7_egg_django_views_decorators_csrf.html'
p1282
sg10
S'/home/deanna/django-deanna/lib/python2.7/site-packages/Django-1.7.4-py2.7.egg/django/views/decorators/csrf'
p1283
sg12
g13
(g14
g15
NtRp1284
(dp1285
g18
I1
sg19
I0
sg20
I27
sg21
I0
sg22
I0
sg23
I6
sg24
I0
sbssg25
S'G\x03/\x82Q8\xb8\xcc\xf2\xc0\xb8\xcb\x97\xaa\xb6\x07'
p1286
ssS'_home_deanna_django-deanna_lib_python2_7_site-packages_defusedxml___init__'
p1287
(dp1288
g29
(dp1289
g8
S'_home_deanna_django-deanna_lib_python2_7_site-packages_defusedxml___init__.html'
p1290
sg10
S'/home/deanna/django-deanna/lib/python2.7/site-packages/defusedxml/__init__'
p1291
sg12
g13
(g14
g15
NtRp1292
(dp1293
g18
I1
sg19
I0
sg20
I20
sg21
I0
sg22
I0
sg23
I15
sg24
I0
sbssg35
S'\x8d\xbcl*\x98L\xf7\xc8ts\xbfR\xbc\xedJd'
p1294
ssS'_home_deanna_django-deanna_lib_python2_7_site-packages_Django-1_7_4-py2_7_egg_django_db_models_fields_related'
p1295
(dp1296
g6
(dp1297
g8
S'_home_deanna_django-deanna_lib_python2_7_site-packages_Django-1_7_4-py2_7_egg_django_db_models_fields_related.html'
p1298
sg10
S'/home/deanna/django-deanna/lib/python2.7/site-packages/Django-1.7.4-py2.7.egg/django/db/models/fields/related'
p1299
sg12
g13
(g14
g15
NtRp1300
(dp1301
g18
I1
sg19
I0
sg20
I1181
sg21
I0
sg22
I0
sg23
I605
sg24
I0
sbssg25
S'\x95\xaf\xcc\xdd\xd3A\x1d\xd8\x9c\x9f\xde&g\xe0\x05\xd5'
p1302
ssS'_home_deanna_django-deanna_lib_python2_7_site-packages_Django-1_7_4-py2_7_egg_django_template_base'
p1303
(dp1304
g6
(dp1305
g8
S'_home_deanna_django-deanna_lib_python2_7_site-packages_Django-1_7_4-py2_7_egg_django_template_base.html'
p1306
sg10
S'/home/deanna/django-deanna/lib/python2.7/site-packages/Django-1.7.4-py2.7.egg/django/template/base'
p1307
sg12
g13
(g14
g15
NtRp1308
(dp1309
g18
I1
sg19
I0
sg20
I786
sg21
I0
sg22
I0
sg23
I343
sg24
I0
sbssg25
S'}\x88\xe9y\x13\xc9\xbb\xb9z:\xdd\xc2\xb5(\x9bo'
p1310
ssS'django_test_settings'
p1311
(dp1312
g6
(dp1313
g48
S'django_test_settings.html'
p1314
sg50
S'django_test/settings'
p1315
sg52
g13
(g14
g15
NtRp1316
(dp1317
g18
I1
sg19
I0
sg20
I23
sg21
I0
sg22
I0
sg23
I0
sg24
I0
sbssg25
S'\xb3~V(X`Y\x19\x86r6\x13\x19\xeen;'
p1318
ssS'_home_deanna_django-deanna_lib_python2_7_site-packages_Django-1_7_4-py2_7_egg_django_utils_dates'
p1319
(dp1320
g6
(dp1321
g48
S'_home_deanna_django-deanna_lib_python2_7_site-packages_Django-1_7_4-py2_7_egg_django_utils_dates.html'
p1322
sg50
S'/home/deanna/django-deanna/lib/python2.7/site-packages/Django-1.7.4-py2.7.egg/django/utils/dates'
p1323
sg52
g13
(g14
g15
NtRp1324
(dp1325
g18
I1
sg19
I0
sg20
I9
sg21
I0
sg22
I0
sg23
I0
sg24
I0
sbssg25
S'\xfb\xce\xe0\x8c\x1a\x0e=\xf2u\xe1UP\xf3&\xfcB'
p1326
ssS'_home_deanna_django-deanna_lib_python2_7_site-packages_Django-1_7_4-py2_7_egg_django_contrib_messages_storage___init__'
p1327
(dp1328
g6
(dp1329
g8
S'_home_deanna_django-deanna_lib_python2_7_site-packages_Django-1_7_4-py2_7_egg_django_contrib_messages_storage___init__.html'
p1330
sg10
S'/home/deanna/django-deanna/lib/python2.7/site-packages/Django-1.7.4-py2.7.egg/django/contrib/messages/storage/__init__'
p1331
sg12
g13
(g14
g15
NtRp1332
(dp1333
g18
I1
sg19
I0
sg20
I4
sg21
I0
sg22
I0
sg23
I0
sg24
I0
sbssg25
S'\x1b\xd4\xf4I\xe8\x15\xcc\xd9Y+R}g\xbb;\x9d'
p1334
ssS'_home_deanna_django-deanna_lib_python2_7_site-packages_Django-1_7_4-py2_7_egg_django_utils_encoding'
p1335
(dp1336
g6
(dp1337
g8
S'_home_deanna_django-deanna_lib_python2_7_site-packages_Django-1_7_4-py2_7_egg_django_utils_encoding.html'
p1338
sg10
S'/home/deanna/django-deanna/lib/python2.7/site-packages/Django-1.7.4-py2.7.egg/django/utils/encoding'
p1339
sg12
g13
(g14
g15
NtRp1340
(dp1341
g18
I1
sg19
I0
sg20
I98
sg21
I0
sg22
I0
sg23
I33
sg24
I0
sbssg25
S'|\x1c\xba$Z\xdd\xedj\xb2\xa8< \x11\xc4\xbc"'
p1342
ssS'_home_deanna_django-deanna_lib_python2_7_site-packages_Django-1_7_4-py2_7_egg_django_db_models_related'
p1343
(dp1344
g6
(dp1345
g48
S'_home_deanna_django-deanna_lib_python2_7_site-packages_Django-1_7_4-py2_7_egg_django_db_models_related.html'
p1346
sg50
S'/home/deanna/django-deanna/lib/python2.7/site-packages/Django-1.7.4-py2.7.egg/django/db/models/related'
p1347
sg52
g13
(g14
g15
NtRp1348
(dp1349
g18
I1
sg19
I0
sg20
I35
sg21
I0
sg22
I0
sg23
I11
sg24
I0
sbssg25
S"\x01\xf2x\xc4~\xb9'\x90\xbb\x13O\x8f(\x90\xb2\xf3"
p1350
ssS'_home_deanna_django-deanna_lib_python2_7_site-packages_Django-1_7_4-py2_7_egg_django_contrib_sites_admin'
p1351
(dp1352
g6
(dp1353
g48
S'_home_deanna_django-deanna_lib_python2_7_site-packages_Django-1_7_4-py2_7_egg_django_contrib_sites_admin.html'
p1354
sg50
S'/home/deanna/django-deanna/lib/python2.7/site-packages/Django-1.7.4-py2.7.egg/django/contrib/sites/admin'
p1355
sg52
g13
(g14
g15
NtRp1356
(dp1357
g18
I1
sg19
I0
sg20
I6
sg21
I0
sg22
I0
sg23
I0
sg24
I0
sbssg25
S'\xe6$hMF\xe2>\xa4\xb6\xcc\x17\n\xe0\x87s\xe8'
p1358
ssS'_home_deanna_django-deanna_lib_python2_7_site-packages_Django-1_7_4-py2_7_egg_django_contrib_auth_signals'
p1359
(dp1360
g6
(dp1361
g48
S'_home_deanna_django-deanna_lib_python2_7_site-packages_Django-1_7_4-py2_7_egg_django_contrib_auth_signals.html'
p1362
sg50
S'/home/deanna/django-deanna/lib/python2.7/site-packages/Django-1.7.4-py2.7.egg/django/contrib/auth/signals'
p1363
sg52
g13
(g14
g15
NtRp1364
(dp1365
g18
I1
sg19
I0
sg20
I4
sg21
I0
sg22
I0
sg23
I0
sg24
I0
sbssg25
S'\x89\x9c\xaa;\xc3\xa0\x92\xe0\x14HX\x86\x17\\\xf6z'
p1366
ssS'_home_deanna_django-deanna_lib_python2_7_site-packages_Django-1_7_4-py2_7_egg_django_core_paginator'
p1367
(dp1368
g6
(dp1369
g48
S'_home_deanna_django-deanna_lib_python2_7_site-packages_Django-1_7_4-py2_7_egg_django_core_paginator.html'
p1370
sg50
S'/home/deanna/django-deanna/lib/python2.7/site-packages/Django-1.7.4-py2.7.egg/django/core/paginator'
p1371
sg52
g13
(g14
g15
NtRp1372
(dp1373
g18
I1
sg19
I0
sg20
I90
sg21
I0
sg22
I0
sg23
I57
sg24
I0
sbssg25
S'}\x07\xf2\xb5\x17\x11\xea\xd0\xb8{q\xc30\x8c\x83\xc1'
p1374
ssS'_home_deanna_django-deanna_lib_python2_7_site-packages_tastypie_exceptions'
p1375
(dp1376
g29
(dp1377
g8
S'_home_deanna_django-deanna_lib_python2_7_site-packages_tastypie_exceptions.html'
p1378
sg10
S'/home/deanna/django-deanna/lib/python2.7/site-packages/tastypie/exceptions'
p1379
sg12
g13
(g14
g15
NtRp1380
(dp1381
g18
I1
sg19
I0
sg20
I30
sg21
I0
sg22
I0
sg23
I2
sg24
I0
sbssg35
S'<B\x1aP\xfc;w\xb5\xec\xf7rP(\xec\xda\xf2'
p1382
ssS'_home_deanna_django-deanna_lib_python2_7_site-packages_Django-1_7_4-py2_7_egg_django_core_files_base'
p1383
(dp1384
g6
(dp1385
g48
S'_home_deanna_django-deanna_lib_python2_7_site-packages_Django-1_7_4-py2_7_egg_django_core_files_base.html'
p1386
sg50
S'/home/deanna/django-deanna/lib/python2.7/site-packages/Django-1.7.4-py2.7.egg/django/core/files/base'
p1387
sg52
g13
(g14
g15
NtRp1388
(dp1389
g18
I1
sg19
I0
sg20
I105
sg21
I0
sg22
I0
sg23
I62
sg24
I0
sbssg25
S'\x01\xf3\xcb\xb3\x84\xec\x89\x1d\xe9\xf4D\xef\xa2\xa9\x89\x8a'
p1390
ssS'_home_deanna_django-deanna_lib_python2_7_site-packages_Django-1_7_4-py2_7_egg_django_forms___init__'
p1391
(dp1392
g6
(dp1393
g48
S'_home_deanna_django-deanna_lib_python2_7_site-packages_Django-1_7_4-py2_7_egg_django_forms___init__.html'
p1394
sg50
S'/home/deanna/django-deanna/lib/python2.7/site-packages/Django-1.7.4-py2.7.egg/django/forms/__init__'
p1395
sg52
g13
(g14
g15
NtRp1396
(dp1397
g18
I1
sg19
I0
sg20
I6
sg21
I0
sg22
I0
sg23
I0
sg24
I0
sbssg25
S'\xd9\x11j\xf9_X\x911mp\xbe\xe8s^\x8f\x84'
p1398
ssS'_home_deanna_django-deanna_lib_python2_7_site-packages_tastypie_utils_timezone'
p1399
(dp1400
g6
(dp1401
g48
S'_home_deanna_django-deanna_lib_python2_7_site-packages_tastypie_utils_timezone.html'
p1402
sg50
S'/home/deanna/django-deanna/lib/python2.7/site-packages/tastypie/utils/timezone'
p1403
sg52
g13
(g14
g15
NtRp1404
(dp1405
g18
I1
sg19
I0
sg20
I27
sg21
I0
sg22
I0
sg23
I14
sg24
I0
sbssg25
S'\x1f\xfe\xb6\x80\xf0\x9dk\x00\x10\x99\xa8\xf9\xfb\x89\x8a\x8a'
p1406
ssS'_home_deanna_django-deanna_lib_python2_7_site-packages_Django-1_7_4-py2_7_egg_django_contrib_admin_widgets'
p1407
(dp1408
g6
(dp1409
g48
S'_home_deanna_django-deanna_lib_python2_7_site-packages_Django-1_7_4-py2_7_egg_django_contrib_admin_widgets.html'
p1410
sg50
S'/home/deanna/django-deanna/lib/python2.7/site-packages/Django-1.7.4-py2.7.egg/django/contrib/admin/widgets'
p1411
sg52
g13
(g14
g15
NtRp1412
(dp1413
g18
I1
sg19
I0
sg20
I224
sg21
I0
sg22
I0
sg23
I154
sg24
I0
sbssg25
S"[\xef\xb6\x03\xd8<\xdbB'~{\xf0\xe7v]y"
p1414
ssS'_home_deanna_django-deanna_lib_python2_7_site-packages_Django-1_7_4-py2_7_egg_django_contrib_admin_utils'
p1415
(dp1416
g6
(dp1417
g48
S'_home_deanna_django-deanna_lib_python2_7_site-packages_Django-1_7_4-py2_7_egg_django_contrib_admin_utils.html'
p1418
sg50
S'/home/deanna/django-deanna/lib/python2.7/site-packages/Django-1.7.4-py2.7.egg/django/contrib/admin/utils'
p1419
sg52
g13
(g14
g15
NtRp1420
(dp1421
g18
I1
sg19
I0
sg20
I290
sg21
I0
sg22
I0
sg23
I233
sg24
I0
sbssg25
S'\xe1\t\xab\x187\x91\xc0N\xb1U\xf5>\x1c\r\xe2\x1a'
p1422
ssS'_home_deanna_django-deanna_lib_python2_7_site-packages_Django-1_7_4-py2_7_egg_django_utils_six'
p1423
(dp1424
g6
(dp1425
g48
S'_home_deanna_django-deanna_lib_python2_7_site-packages_Django-1_7_4-py2_7_egg_django_utils_six.html'
p1426
sg50
S'/home/deanna/django-deanna/lib/python2.7/site-packages/Django-1.7.4-py2.7.egg/django/utils/six'
p1427
sg52
g13
(g14
g15
NtRp1428
(dp1429
g18
I1
sg19
I0
sg20
I442
sg21
I0
sg22
I0
sg23
I198
sg24
I0
sbssg25
S"\xb3\xce'\x18\xdd\x7f\xeb\xee\x1ffH\xaf\xcb\xe5!\x19"
p1430
ssS'_home_deanna_django-deanna_lib_python2_7_site-packages_Django-1_7_4-py2_7_egg_django_views_decorators___init__'
p1431
(dp1432
g6
(dp1433
g48
S'_home_deanna_django-deanna_lib_python2_7_site-packages_Django-1_7_4-py2_7_egg_django_views_decorators___init__.html'
p1434
sg50
S'/home/deanna/django-deanna/lib/python2.7/site-packages/Django-1.7.4-py2.7.egg/django/views/decorators/__init__'
p1435
sg52
g13
(g14
g15
NtRp1436
(dp1437
g18
I1
sg19
I0
sg20
I0
sg21
I0
sg22
I0
sg23
I0
sg24
I0
sbssg25
S'\xca\xf5\x9f\x7f\x88\xdfa\x831|T\x1d\xbc}\xa5v'
p1438
ssS'_home_deanna_django-deanna_lib_python2_7_site-packages_Django-1_7_4-py2_7_egg_django_template_defaulttags'
p1439
(dp1440
g6
(dp1441
g8
S'_home_deanna_django-deanna_lib_python2_7_site-packages_Django-1_7_4-py2_7_egg_django_template_defaulttags.html'
p1442
sg10
S'/home/deanna/django-deanna/lib/python2.7/site-packages/Django-1.7.4-py2.7.egg/django/template/defaulttags'
p1443
sg12
g13
(g14
g15
NtRp1444
(dp1445
g18
I1
sg19
I0
sg20
I621
sg21
I0
sg22
I0
sg23
I408
sg24
I0
sbssg25
S'\xe3j[:\x16\xef\x03\xfa\x9b\x08%\xac\xdelD\x12'
p1446
ssS'_home_deanna_django-deanna_lib_python2_7_site-packages_dateutil_tz'
p1447
(dp1448
g6
(dp1449
g48
S'_home_deanna_django-deanna_lib_python2_7_site-packages_dateutil_tz.html'
p1450
sg50
S'/home/deanna/django-deanna/lib/python2.7/site-packages/dateutil/tz'
p1451
sg52
g13
(g14
g15
NtRp1452
(dp1453
g18
I1
sg19
I0
sg20
I586
sg21
I0
sg22
I0
sg23
I484
sg24
I0
sbssg25
S'6A\xd1\x9d\x1bN\xb6\xa6\x85s"W\x9f \xbc\xb6'
p1454
ssS'_home_deanna_django-deanna_lib_python2_7_site-packages_Django-1_7_4-py2_7_egg_django_utils_synch'
p1455
(dp1456
g6
(dp1457
g48
S'_home_deanna_django-deanna_lib_python2_7_site-packages_Django-1_7_4-py2_7_egg_django_utils_synch.html'
p1458
sg50
S'/home/deanna/django-deanna/lib/python2.7/site-packages/Django-1.7.4-py2.7.egg/django/utils/synch'
p1459
sg52
g13
(g14
g15
NtRp1460
(dp1461
g18
I1
sg19
I0
sg20
I59
sg21
I0
sg22
I0
sg23
I41
sg24
I0
sbssg25
S'XcEAm1o\x86 G\xd3\x04\xbb)7z'
p1462
ssS'_home_deanna_django-deanna_lib_python2_7_site-packages_Django-1_7_4-py2_7_egg_django_core_files_locks'
p1463
(dp1464
g6
(dp1465
g48
S'_home_deanna_django-deanna_lib_python2_7_site-packages_Django-1_7_4-py2_7_egg_django_core_files_locks.html'
p1466
sg50
S'/home/deanna/django-deanna/lib/python2.7/site-packages/Django-1.7.4-py2.7.egg/django/core/files/locks'
p1467
sg52
g13
(g14
g15
NtRp1468
(dp1469
g18
I1
sg19
I0
sg20
I57
sg21
I0
sg22
I0
sg23
I46
sg24
I0
sbssg25
S';4F\xa2\x0bH\xcbk>\x84\x93\x9f\x0f3\xb1\xc5'
p1470
ssS'_home_deanna_django-deanna_lib_python2_7_site-packages_Django-1_7_4-py2_7_egg_django_db_transaction'
p1471
(dp1472
g6
(dp1473
g8
S'_home_deanna_django-deanna_lib_python2_7_site-packages_Django-1_7_4-py2_7_egg_django_db_transaction.html'
p1474
sg10
S'/home/deanna/django-deanna/lib/python2.7/site-packages/Django-1.7.4-py2.7.egg/django/db/transaction'
p1475
sg12
g13
(g14
g15
NtRp1476
(dp1477
g18
I1
sg19
I0
sg20
I207
sg21
I0
sg22
I0
sg23
I102
sg24
I0
sbssg25
S'\xcd\x82\xeb\xeb\xcbm`\xa1O~\x93\xed\xd9#\x0ci'
p1478
ssS'_home_deanna_django-deanna_lib_python2_7_site-packages_Django-1_7_4-py2_7_egg_django_contrib_auth_checks'
p1479
(dp1480
g6
(dp1481
g48
S'_home_deanna_django-deanna_lib_python2_7_site-packages_Django-1_7_4-py2_7_egg_django_contrib_auth_checks.html'
p1482
sg50
S'/home/deanna/django-deanna/lib/python2.7/site-packages/Django-1.7.4-py2.7.egg/django/contrib/auth/checks'
p1483
sg52
g13
(g14
g15
NtRp1484
(dp1485
g18
I1
sg19
I0
sg20
I16
sg21
I0
sg22
I0
sg23
I5
sg24
I0
sbssg25
S'\\\xef\xc4\xa3$\xb2gNa\xba\xd0\x03\xa0\x87i\x84'
p1486
ssS'_home_deanna_django-deanna_lib_python2_7_site-packages_Django-1_7_4-py2_7_egg_django_contrib_sessions_backends_base'
p1487
(dp1488
g6
(dp1489
g8
S'_home_deanna_django-deanna_lib_python2_7_site-packages_Django-1_7_4-py2_7_egg_django_contrib_sessions_backends_base.html'
p1490
sg10
S'/home/deanna/django-deanna/lib/python2.7/site-packages/Django-1.7.4-py2.7.egg/django/contrib/sessions/backends/base'
p1491
sg12
g13
(g14
g15
NtRp1492
(dp1493
g18
I1
sg19
I0
sg20
I181
sg21
I0
sg22
I0
sg23
I107
sg24
I0
sbssg25
S'q\xff\xd00S\x9b\nM\xf8\xef\x04N\xfc\x95S\x81'
p1494
ssS'_home_deanna_django-deanna_lib_python2_7_site-packages_Django-1_7_4-py2_7_egg_django_template_loaders_filesystem'
p1495
(dp1496
g29
(dp1497
g8
S'_home_deanna_django-deanna_lib_python2_7_site-packages_Django-1_7_4-py2_7_egg_django_template_loaders_filesystem.html'
p1498
sg10
S'/home/deanna/django-deanna/lib/python2.7/site-packages/Django-1.7.4-py2.7.egg/django/template/loaders/filesystem'
p1499
sg12
g13
(g14
g15
NtRp1500
(dp1501
g18
I1
sg19
I0
sg20
I29
sg21
I0
sg22
I0
sg23
I3
sg24
I0
sbssg35
S'&:r\xd8\xb2\x83Q\xa7\xf8\x07.\x02\xab\xe1{\xfc'
p1502
ssS'_home_deanna_django-deanna_lib_python2_7_site-packages_Django-1_7_4-py2_7_egg_django_db_models_manager'
p1503
(dp1504
g6
(dp1505
g8
S'_home_deanna_django-deanna_lib_python2_7_site-packages_Django-1_7_4-py2_7_egg_django_db_models_manager.html'
p1506
sg10
S'/home/deanna/django-deanna/lib/python2.7/site-packages/Django-1.7.4-py2.7.egg/django/db/models/manager'
p1507
sg12
g13
(g14
g15
NtRp1508
(dp1509
g18
I1
sg19
I0
sg20
I137
sg21
I0
sg22
I0
sg23
I17
sg24
I0
sbssg25
S'JZg\xd1\xb1\xfb\x01\x16\xe0\x90\x8d\x1d\x0b<o\x89'
p1510
ssS'_home_deanna_django-deanna_lib_python2_7_site-packages_Django-1_7_4-py2_7_egg_django_conf_urls___init__'
p1511
(dp1512
g29
(dp1513
g8
S'_home_deanna_django-deanna_lib_python2_7_site-packages_Django-1_7_4-py2_7_egg_django_conf_urls___init__.html'
p1514
sg10
S'/home/deanna/django-deanna/lib/python2.7/site-packages/Django-1.7.4-py2.7.egg/django/conf/urls/__init__'
p1515
sg12
g13
(g14
g15
NtRp1516
(dp1517
g18
I1
sg19
I0
sg20
I42
sg21
I0
sg22
I0
sg23
I5
sg24
I0
sbssg35
S'\x84A)\xf8\xd7\xe7M\x97\xcb$\xb5\x84\x7f\xce\x8c\xae'
p1518
ssS'_home_deanna_django-deanna_lib_python2_7_site-packages_Django-1_7_4-py2_7_egg_django_core_checks_registry'
p1519
(dp1520
g6
(dp1521
g48
S'_home_deanna_django-deanna_lib_python2_7_site-packages_Django-1_7_4-py2_7_egg_django_core_checks_registry.html'
p1522
sg50
S'/home/deanna/django-deanna/lib/python2.7/site-packages/Django-1.7.4-py2.7.egg/django/core/checks/registry'
p1523
sg52
g13
(g14
g15
NtRp1524
(dp1525
g18
I1
sg19
I0
sg20
I36
sg21
I0
sg22
I0
sg23
I3
sg24
I0
sbssg25
S')\\\xfeP\xa9\xa2\xa2\xcc.g\xa5\x897\xdf\x0f\x97'
p1526
ssS'_home_deanna_django-deanna_lib_python2_7_site-packages_Django-1_7_4-py2_7_egg_django_contrib_auth_hashers'
p1527
(dp1528
g6
(dp1529
g48
S'_home_deanna_django-deanna_lib_python2_7_site-packages_Django-1_7_4-py2_7_egg_django_contrib_auth_hashers.html'
p1530
sg50
S'/home/deanna/django-deanna/lib/python2.7/site-packages/Django-1.7.4-py2.7.egg/django/contrib/auth/hashers'
p1531
sg52
g13
(g14
g15
NtRp1532
(dp1533
g18
I1
sg19
I0
sg20
I247
sg21
I0
sg22
I0
sg23
I160
sg24
I0
sbssg25
S'\x84\xb7\xb6;\xc5C\xcc\xef\xcb\x8e\xee\x02u\xba\x1b*'
p1534
ssS'_home_deanna_django-deanna_lib_python2_7_site-packages_Django-1_7_4-py2_7_egg_django_contrib_messages_middleware'
p1535
(dp1536
g29
(dp1537
g8
S'_home_deanna_django-deanna_lib_python2_7_site-packages_Django-1_7_4-py2_7_egg_django_contrib_messages_middleware.html'
p1538
sg10
S'/home/deanna/django-deanna/lib/python2.7/site-packages/Django-1.7.4-py2.7.egg/django/contrib/messages/middleware'
p1539
sg12
g13
(g14
g15
NtRp1540
(dp1541
g18
I1
sg19
I0
sg20
I11
sg21
I0
sg22
I0
sg23
I1
sg24
I0
sbssg35
S'\xb3^Gb\x9c\x16p\xcf\xc1\x94J\x89,\xf2\x06\xfc'
p1542
ssS'_home_deanna_django-deanna_lib_python2_7_site-packages_Django-1_7_4-py2_7_egg_django_contrib_admin_models'
p1543
(dp1544
g6
(dp1545
g48
S'_home_deanna_django-deanna_lib_python2_7_site-packages_Django-1_7_4-py2_7_egg_django_contrib_admin_models.html'
p1546
sg50
S'/home/deanna/django-deanna/lib/python2.7/site-packages/Django-1.7.4-py2.7.egg/django/contrib/admin/models'
p1547
sg52
g13
(g14
g15
NtRp1548
(dp1549
g18
I1
sg19
I0
sg20
I57
sg21
I0
sg22
I0
sg23
I21
sg24
I0
sbssg25
S'\xde\xee:7u\xca\x9bwwf@9\x18I\x12\x18'
p1550
ssS'_home_deanna_django-deanna_lib_python2_7_site-packages_Django-1_7_4-py2_7_egg_django_core_serializers_pyyaml'
p1551
(dp1552
g6
(dp1553
g48
S'_home_deanna_django-deanna_lib_python2_7_site-packages_Django-1_7_4-py2_7_egg_django_core_serializers_pyyaml.html'
p1554
sg50
S'/home/deanna/django-deanna/lib/python2.7/site-packages/Django-1.7.4-py2.7.egg/django/core/serializers/pyyaml'
p1555
sg52
g13
(g14
g15
NtRp1556
(dp1557
g18
I1
sg19
I0
sg20
I41
sg21
I0
sg22
I0
sg23
I39
sg24
I0
sbssg25
S'\x1d\xf9X\x9c<\n\xa9Q\x18\xd4\xe2\xdfDF\x8e\xdf'
p1558
ssS'_home_deanna_django-deanna_lib_python2_7_site-packages_Django-1_7_4-py2_7_egg_django_contrib_contenttypes_apps'
p1559
(dp1560
g6
(dp1561
g48
S'_home_deanna_django-deanna_lib_python2_7_site-packages_Django-1_7_4-py2_7_egg_django_contrib_contenttypes_apps.html'
p1562
sg50
S'/home/deanna/django-deanna/lib/python2.7/site-packages/Django-1.7.4-py2.7.egg/django/contrib/contenttypes/apps'
p1563
sg52
g13
(g14
g15
NtRp1564
(dp1565
g18
I1
sg19
I0
sg20
I9
sg21
I0
sg22
I0
sg23
I0
sg24
I0
sbssg25
S'J\xbf,\xb6\x0e~K\n\xadl\xf0\xb6\xb1d:\x0f'
p1566
ssS'_home_deanna_django-deanna_lib_python2_7_site-packages_Django-1_7_4-py2_7_egg_django_core_serializers_json'
p1567
(dp1568
g6
(dp1569
g48
S'_home_deanna_django-deanna_lib_python2_7_site-packages_Django-1_7_4-py2_7_egg_django_core_serializers_json.html'
p1570
sg50
S'/home/deanna/django-deanna/lib/python2.7/site-packages/Django-1.7.4-py2.7.egg/django/core/serializers/json'
p1571
sg52
g13
(g14
g15
NtRp1572
(dp1573
g18
I1
sg19
I0
sg20
I76
sg21
I0
sg22
I0
sg23
I36
sg24
I0
sbssg25
S'\xb3"\x8d\xec\x0cU\xb4`\t&}$u0\x06\x96'
p1574
ssS'_home_deanna_django-deanna_lib_python2_7_site-packages_Django-1_7_4-py2_7_egg_django_contrib_admin_filters'
p1575
(dp1576
g6
(dp1577
g48
S'_home_deanna_django-deanna_lib_python2_7_site-packages_Django-1_7_4-py2_7_egg_django_contrib_admin_filters.html'
p1578
sg50
S'/home/deanna/django-deanna/lib/python2.7/site-packages/Django-1.7.4-py2.7.egg/django/contrib/admin/filters'
p1579
sg52
g13
(g14
g15
NtRp1580
(dp1581
g18
I1
sg19
I0
sg20
I188
sg21
I0
sg22
I0
sg23
I127
sg24
I0
sbssg25
S'\x17\x97\x84j\xefaf\xd4#\xca\xce\xde\xc2\x13\xd6C'
p1582
ssS'_home_deanna_django-deanna_lib_python2_7_site-packages_Django-1_7_4-py2_7_egg_django_core_management_sql'
p1583
(dp1584
g6
(dp1585
g48
S'_home_deanna_django-deanna_lib_python2_7_site-packages_Django-1_7_4-py2_7_egg_django_core_management_sql.html'
p1586
sg50
S'/home/deanna/django-deanna/lib/python2.7/site-packages/Django-1.7.4-py2.7.egg/django/core/management/sql'
p1587
sg52
g13
(g14
g15
NtRp1588
(dp1589
g18
I1
sg19
I0
sg20
I152
sg21
I0
sg22
I0
sg23
I95
sg24
I0
sbssg25
S'\xf8\x8f\x9e\t\x87\x17<\x15\xbaT\x0e\x95\xd24\x9f\xd9'
p1590
ssS'_home_deanna_django-deanna_lib_python2_7_site-packages_Django-1_7_4-py2_7_egg_django_contrib_sites_apps'
p1591
(dp1592
g6
(dp1593
g48
S'_home_deanna_django-deanna_lib_python2_7_site-packages_Django-1_7_4-py2_7_egg_django_contrib_sites_apps.html'
p1594
sg50
S'/home/deanna/django-deanna/lib/python2.7/site-packages/Django-1.7.4-py2.7.egg/django/contrib/sites/apps'
p1595
sg52
g13
(g14
g15
NtRp1596
(dp1597
g18
I1
sg19
I0
sg20
I5
sg21
I0
sg22
I0
sg23
I0
sg24
I0
sbssg25
S'\xd6\x9d6vi\x816w\xe8\xc7|a\xfc&9\xb7'
p1598
ssS'_home_deanna_django-deanna_lib_python2_7_site-packages_Django-1_7_4-py2_7_egg_django_core_validators'
p1599
(dp1600
g6
(dp1601
g48
S'_home_deanna_django-deanna_lib_python2_7_site-packages_Django-1_7_4-py2_7_egg_django_core_validators.html'
p1602
sg50
S'/home/deanna/django-deanna/lib/python2.7/site-packages/Django-1.7.4-py2.7.egg/django/core/validators'
p1603
sg52
g13
(g14
g15
NtRp1604
(dp1605
g18
I1
sg19
I0
sg20
I178
sg21
I0
sg22
I0
sg23
I75
sg24
I0
sbssg25
S'\x8cq\x17\xaa\xcft\xe3\xdc\xfd\x82\xdf\xd02\x88\n\xe6'
p1606
ssS'_home_deanna_django-deanna_lib_python2_7_site-packages_Django-1_7_4-py2_7_egg_django_contrib_comments_admin'
p1607
(dp1608
g6
(dp1609
g48
S'_home_deanna_django-deanna_lib_python2_7_site-packages_Django-1_7_4-py2_7_egg_django_contrib_comments_admin.html'
p1610
sg50
S'/home/deanna/django-deanna/lib/python2.7/site-packages/Django-1.7.4-py2.7.egg/django/contrib/comments/admin'
p1611
sg52
g13
(g14
g15
NtRp1612
(dp1613
g18
I1
sg19
I0
sg20
I46
sg21
I0
sg22
I0
sg23
I18
sg24
I0
sbssg25
S'\x1c\x1fXN21\x93\xc2\xf6\xf1\xa1C\x0f\x03\xe7N'
p1614
ssS'_home_deanna_django-deanna_lib_python2_7_site-packages_Django-1_7_4-py2_7_egg_django_test___init__'
p1615
(dp1616
g6
(dp1617
g48
S'_home_deanna_django-deanna_lib_python2_7_site-packages_Django-1_7_4-py2_7_egg_django_test___init__.html'
p1618
sg50
S'/home/deanna/django-deanna/lib/python2.7/site-packages/Django-1.7.4-py2.7.egg/django/test/__init__'
p1619
sg52
g13
(g14
g15
NtRp1620
(dp1621
g18
I1
sg19
I0
sg20
I4
sg21
I0
sg22
I0
sg23
I0
sg24
I0
sbssg25
S'\xba/\x8e\xd7\x9b\xd2\xd7D\x00\x91?\x10\x97T\xcf\x18'
p1622
ssS'_home_deanna_django-deanna_lib_python2_7_site-packages_Django-1_7_4-py2_7_egg_django_db_models_sql_subqueries'
p1623
(dp1624
g6
(dp1625
g48
S'_home_deanna_django-deanna_lib_python2_7_site-packages_Django-1_7_4-py2_7_egg_django_db_models_sql_subqueries.html'
p1626
sg50
S'/home/deanna/django-deanna/lib/python2.7/site-packages/Django-1.7.4-py2.7.egg/django/db/models/sql/subqueries'
p1627
sg52
g13
(g14
g15
NtRp1628
(dp1629
g18
I1
sg19
I0
sg20
I143
sg21
I0
sg22
I0
sg23
I85
sg24
I0
sbssg25
S'\x95\x9f\xa3\xfa2\xcb\xf2y \xa3\xac4\xad\xc2\x11\xfd'
p1630
ssS'_home_deanna_django-deanna_lib_python2_7_site-packages_Django-1_7_4-py2_7_egg_django_contrib_sessions_models'
p1631
(dp1632
g6
(dp1633
g48
S'_home_deanna_django-deanna_lib_python2_7_site-packages_Django-1_7_4-py2_7_egg_django_contrib_sessions_models.html'
p1634
sg50
S'/home/deanna/django-deanna/lib/python2.7/site-packages/Django-1.7.4-py2.7.egg/django/contrib/sessions/models'
p1635
sg52
g13
(g14
g15
NtRp1636
(dp1637
g18
I1
sg19
I0
sg20
I24
sg21
I0
sg22
I0
sg23
I7
sg24
I0
sbssg25
S'\xdb/\xe7/\xd6\xed\xfa\xb4\xc4\x06Q\x93\xa3\xbcB!'
p1638
ssS'_home_deanna_django-deanna_lib_python2_7_site-packages_Django-1_7_4-py2_7_egg_django_contrib_admin_validation'
p1639
(dp1640
g6
(dp1641
g48
S'_home_deanna_django-deanna_lib_python2_7_site-packages_Django-1_7_4-py2_7_egg_django_contrib_admin_validation.html'
p1642
sg50
S'/home/deanna/django-deanna/lib/python2.7/site-packages/Django-1.7.4-py2.7.egg/django/contrib/admin/validation'
p1643
sg52
g13
(g14
g15
NtRp1644
(dp1645
g18
I1
sg19
I0
sg20
I259
sg21
I0
sg22
I0
sg23
I214
sg24
I0
sbssg25
S'd\xe9\xa9\xdb\x8b\x8e\x92\xe3\x1b\xbd#\x83:\x13\xecy'
p1646
ssS'_home_deanna_django-deanna_lib_python2_7_site-packages_Django-1_7_4-py2_7_egg_django_contrib_staticfiles_templatetags___init__'
p1647
(dp1648
g29
(dp1649
g8
S'_home_deanna_django-deanna_lib_python2_7_site-packages_Django-1_7_4-py2_7_egg_django_contrib_staticfiles_templatetags___init__.html'
p1650
sg10
S'/home/deanna/django-deanna/lib/python2.7/site-packages/Django-1.7.4-py2.7.egg/django/contrib/staticfiles/templatetags/__init__'
p1651
sg12
g13
(g14
g15
NtRp1652
(dp1653
g18
I1
sg19
I0
sg20
I0
sg21
I0
sg22
I0
sg23
I0
sg24
I0
sbssg35
S'\xca\xf5\x9f\x7f\x88\xdfa\x831|T\x1d\xbc}\xa5v'
p1654
ssS'_home_deanna_django-deanna_lib_python2_7_site-packages_Django-1_7_4-py2_7_egg_django_http_request'
p1655
(dp1656
g6
(dp1657
g8
S'_home_deanna_django-deanna_lib_python2_7_site-packages_Django-1_7_4-py2_7_egg_django_http_request.html'
p1658
sg10
S'/home/deanna/django-deanna/lib/python2.7/site-packages/Django-1.7.4-py2.7.egg/django/http/request'
p1659
sg12
g13
(g14
g15
NtRp1660
(dp1661
g18
I1
sg19
I0
sg20
I306
sg21
I0
sg22
I0
sg23
I205
sg24
I0
sbssg25
S'0\xac\xf2\xbf\xa9\x84F_\xb2w\x97~\x88\xce\x9b\xbf'
p1662
ssS'_home_deanna_django-deanna_lib_python2_7_site-packages_Django-1_7_4-py2_7_egg_django_utils___init__'
p1663
(dp1664
g6
(dp1665
g48
S'_home_deanna_django-deanna_lib_python2_7_site-packages_Django-1_7_4-py2_7_egg_django_utils___init__.html'
p1666
sg50
S'/home/deanna/django-deanna/lib/python2.7/site-packages/Django-1.7.4-py2.7.egg/django/utils/__init__'
p1667
sg52
g13
(g14
g15
NtRp1668
(dp1669
g18
I1
sg19
I0
sg20
I0
sg21
I0
sg22
I0
sg23
I0
sg24
I0
sbssg25
S'\xca\xf5\x9f\x7f\x88\xdfa\x831|T\x1d\xbc}\xa5v'
p1670
ssS'_home_deanna_django-deanna_lib_python2_7_site-packages_Django-1_7_4-py2_7_egg_django_db_models_sql_constants'
p1671
(dp1672
g6
(dp1673
g48
S'_home_deanna_django-deanna_lib_python2_7_site-packages_Django-1_7_4-py2_7_egg_django_db_models_sql_constants.html'
p1674
sg50
S'/home/deanna/django-deanna/lib/python2.7/site-packages/Django-1.7.4-py2.7.egg/django/db/models/sql/constants'
p1675
sg52
g13
(g14
g15
NtRp1676
(dp1677
g18
I1
sg19
I0
sg20
I12
sg21
I0
sg22
I0
sg23
I0
sg24
I0
sbssg25
S'\xd9\xa0\x04%}\xdd\x7f\xdaP\xfe\xce(\x8f\x8d\x9c|'
p1678
ssS'_home_deanna_django-deanna_lib_python2_7_site-packages_tastypie_management___init__'
p1679
(dp1680
g6
(dp1681
g48
S'_home_deanna_django-deanna_lib_python2_7_site-packages_tastypie_management___init__.html'
p1682
sg50
S'/home/deanna/django-deanna/lib/python2.7/site-packages/tastypie/management/__init__'
p1683
sg52
g13
(g14
g15
NtRp1684
(dp1685
g18
I1
sg19
I0
sg20
I0
sg21
I0
sg22
I0
sg23
I0
sg24
I0
sbssg25
S'\xca\xf5\x9f\x7f\x88\xdfa\x831|T\x1d\xbc}\xa5v'
p1686
ssS'_home_deanna_django-deanna_lib_python2_7_site-packages_Django-1_7_4-py2_7_egg_django_contrib_staticfiles_management___init__'
p1687
(dp1688
g6
(dp1689
g48
S'_home_deanna_django-deanna_lib_python2_7_site-packages_Django-1_7_4-py2_7_egg_django_contrib_staticfiles_management___init__.html'
p1690
sg50
S'/home/deanna/django-deanna/lib/python2.7/site-packages/Django-1.7.4-py2.7.egg/django/contrib/staticfiles/management/__init__'
p1691
sg52
g13
(g14
g15
NtRp1692
(dp1693
g18
I1
sg19
I0
sg20
I0
sg21
I0
sg22
I0
sg23
I0
sg24
I0
sbssg25
S'\xca\xf5\x9f\x7f\x88\xdfa\x831|T\x1d\xbc}\xa5v'
p1694
ssS'_home_deanna_django-deanna_lib_python2_7_site-packages_Django-1_7_4-py2_7_egg_django_contrib_messages_storage_fallback'
p1695
(dp1696
g29
(dp1697
g8
S'_home_deanna_django-deanna_lib_python2_7_site-packages_Django-1_7_4-py2_7_egg_django_contrib_messages_storage_fallback.html'
p1698
sg10
S'/home/deanna/django-deanna/lib/python2.7/site-packages/Django-1.7.4-py2.7.egg/django/contrib/messages/storage/fallback'
p1699
sg12
g13
(g14
g15
NtRp1700
(dp1701
g18
I1
sg19
I0
sg20
I29
sg21
I0
sg22
I0
sg23
I18
sg24
I0
sbssg35
S'.\xc9\x11yT\xbe\xa2@\xfb\xb6"L\xdc\xd2\x01\x98'
p1702
ssS'_home_deanna_django-deanna_lib_python2_7_site-packages_tastypie_utils_validate_jsonp'
p1703
(dp1704
g6
(dp1705
g48
S'_home_deanna_django-deanna_lib_python2_7_site-packages_tastypie_utils_validate_jsonp.html'
p1706
sg50
S'/home/deanna/django-deanna/lib/python2.7/site-packages/tastypie/utils/validate_jsonp'
p1707
sg52
g13
(g14
g15
NtRp1708
(dp1709
g18
I1
sg19
I0
sg20
I55
sg21
I0
sg22
I0
sg23
I39
sg24
I0
sbssg25
S'\x82\xf2\xc6\xa8\x85\xa6\xf4/\xabV(\xd2\x0e`9\x84'
p1710
ssS'_home_deanna_django-deanna_lib_python2_7_site-packages_Django-1_7_4-py2_7_egg_django_db_models_deletion'
p1711
(dp1712
g6
(dp1713
g48
S'_home_deanna_django-deanna_lib_python2_7_site-packages_Django-1_7_4-py2_7_egg_django_db_models_deletion.html'
p1714
sg50
S'/home/deanna/django-deanna/lib/python2.7/site-packages/Django-1.7.4-py2.7.egg/django/db/models/deletion'
p1715
sg52
g13
(g14
g15
NtRp1716
(dp1717
g18
I1
sg19
I0
sg20
I154
sg21
I0
sg22
I0
sg23
I131
sg24
I0
sbssg25
S'\xc6[\xbfV\xec#\x1a2\xf6`\xce)\xa7\x8b\xcb\xac'
p1718
ssS'_home_deanna_django-deanna_lib_python2_7_site-packages_six'
p1719
(dp1720
g6
(dp1721
g48
S'_home_deanna_django-deanna_lib_python2_7_site-packages_six.html'
p1722
sg50
S'/home/deanna/django-deanna/lib/python2.7/site-packages/six'
p1723
sg52
g13
(g14
g15
NtRp1724
(dp1725
g18
I1
sg19
I0
sg20
I435
sg21
I0
sg22
I0
sg23
I199
sg24
I0
sbssg25
S'\xc0\xce$]\xcf\x93\xdb\x9e\xc5\xad9\x15\x87\xa3\xb4\xab'
p1726
ssS'_home_deanna_django-deanna_lib_python2_7_site-packages_Django-1_7_4-py2_7_egg_django_db_models_signals'
p1727
(dp1728
g6
(dp1729
g48
S'_home_deanna_django-deanna_lib_python2_7_site-packages_Django-1_7_4-py2_7_egg_django_db_models_signals.html'
p1730
sg50
S'/home/deanna/django-deanna/lib/python2.7/site-packages/Django-1.7.4-py2.7.egg/django/db/models/signals'
p1731
sg52
g13
(g14
g15
NtRp1732
(dp1733
g18
I1
sg19
I0
sg20
I43
sg21
I0
sg22
I0
sg23
I13
sg24
I0
sbssg25
S'\xb0\x8b\x99\xfc]2\xbf\xfc\xb8\xffx]D\xfe\xe1\xad'
p1734
ssS'_home_deanna_django-deanna_lib_python2_7_site-packages_Django-1_7_4-py2_7_egg_django_middleware___init__'
p1735
(dp1736
g6
(dp1737
g48
S'_home_deanna_django-deanna_lib_python2_7_site-packages_Django-1_7_4-py2_7_egg_django_middleware___init__.html'
p1738
sg50
S'/home/deanna/django-deanna/lib/python2.7/site-packages/Django-1.7.4-py2.7.egg/django/middleware/__init__'
p1739
sg52
g13
(g14
g15
NtRp1740
(dp1741
g18
I1
sg19
I0
sg20
I0
sg21
I0
sg22
I0
sg23
I0
sg24
I0
sbssg25
S'\xca\xf5\x9f\x7f\x88\xdfa\x831|T\x1d\xbc}\xa5v'
p1742
ssS'_home_deanna_django-deanna_lib_python2_7_site-packages_Django-1_7_4-py2_7_egg_django_utils_ipv6'
p1743
(dp1744
g6
(dp1745
g48
S'_home_deanna_django-deanna_lib_python2_7_site-packages_Django-1_7_4-py2_7_egg_django_utils_ipv6.html'
p1746
sg50
S'/home/deanna/django-deanna/lib/python2.7/site-packages/Django-1.7.4-py2.7.egg/django/utils/ipv6'
p1747
sg52
g13
(g14
g15
NtRp1748
(dp1749
g18
I1
sg19
I0
sg20
I108
sg21
I0
sg22
I0
sg23
I99
sg24
I0
sbssg25
S'\xd0\x14\xc1B\x89W\x94A\xbc\x91\x18*\xc66\x11\x05'
p1750
ssS'_home_deanna_django-deanna_lib_python2_7_site-packages_Django-1_7_4-py2_7_egg_django_contrib_comments_managers'
p1751
(dp1752
g6
(dp1753
g48
S'_home_deanna_django-deanna_lib_python2_7_site-packages_Django-1_7_4-py2_7_egg_django_contrib_comments_managers.html'
p1754
sg50
S'/home/deanna/django-deanna/lib/python2.7/site-packages/Django-1.7.4-py2.7.egg/django/contrib/comments/managers'
p1755
sg52
g13
(g14
g15
NtRp1756
(dp1757
g18
I1
sg19
I0
sg20
I12
sg21
I0
sg22
I0
sg23
I6
sg24
I0
sbssg25
S'G\xc8\x03V\xf4\x85`\xd7\x85\xb8\x99p\xde\xd7\xb2\x1c'
p1758
ssS'_home_deanna_django-deanna_lib_python2_7_site-packages_Django-1_7_4-py2_7_egg_django_conf_global_settings'
p1759
(dp1760
g6
(dp1761
g48
S'_home_deanna_django-deanna_lib_python2_7_site-packages_Django-1_7_4-py2_7_egg_django_conf_global_settings.html'
p1762
sg50
S'/home/deanna/django-deanna/lib/python2.7/site-packages/Django-1.7.4-py2.7.egg/django/conf/global_settings'
p1763
sg52
g13
(g14
g15
NtRp1764
(dp1765
g18
I1
sg19
I0
sg20
I130
sg21
I0
sg22
I0
sg23
I0
sg24
I0
sbssg25
S'M\x9e\x92\xfe\x88\xe8sP\x0e\x98\xea\xc7Bkq\x7f'
p1766
ssS'_home_deanna_django-deanna_lib_python2_7_site-packages_Django-1_7_4-py2_7_egg_django_db_models_base'
p1767
(dp1768
g6
(dp1769
g48
S'_home_deanna_django-deanna_lib_python2_7_site-packages_Django-1_7_4-py2_7_egg_django_db_models_base.html'
p1770
sg50
S'/home/deanna/django-deanna/lib/python2.7/site-packages/Django-1.7.4-py2.7.egg/django/db/models/base'
p1771
sg52
g13
(g14
g15
NtRp1772
(dp1773
g18
I1
sg19
I0
sg20
I730
sg21
I0
sg22
I0
sg23
I354
sg24
I0
sbssg25
S'\x92\x95\xfbHj1\xe1$\x1bm\xff\x85\tl9\xc6'
p1774
ssS'_home_deanna_django-deanna_lib_python2_7_site-packages_Django-1_7_4-py2_7_egg_django_db_migrations_executor'
p1775
(dp1776
g6
(dp1777
g48
S'_home_deanna_django-deanna_lib_python2_7_site-packages_Django-1_7_4-py2_7_egg_django_db_migrations_executor.html'
p1778
sg50
S'/home/deanna/django-deanna/lib/python2.7/site-packages/Django-1.7.4-py2.7.egg/django/db/migrations/executor'
p1779
sg52
g13
(g14
g15
NtRp1780
(dp1781
g18
I1
sg19
I0
sg20
I94
sg21
I0
sg22
I0
sg23
I39
sg24
I0
sbssg25
S'\xb1\xf4\xf3\x96\xc1\xe5\xdf6\x1e\xa8\xc9\xb5\xe5\xa5\r\x91'
p1782
ssS'_home_deanna_django-deanna_lib_python2_7_site-packages_Django-1_7_4-py2_7_egg_django_db_migrations_state'
p1783
(dp1784
g6
(dp1785
g48
S'_home_deanna_django-deanna_lib_python2_7_site-packages_Django-1_7_4-py2_7_egg_django_db_migrations_state.html'
p1786
sg50
S'/home/deanna/django-deanna/lib/python2.7/site-packages/Django-1.7.4-py2.7.egg/django/db/migrations/state'
p1787
sg52
g13
(g14
g15
NtRp1788
(dp1789
g18
I1
sg19
I0
sg20
I183
sg21
I0
sg22
I0
sg23
I50
sg24
I0
sbssg25
S"'\x8e\xa8\x1d\xf1i3\xad\xd3\x00\xcf\x93\x06%U\xc2"
p1790
ssS'_home_deanna_django-deanna_lib_python2_7_site-packages_Django-1_7_4-py2_7_egg_django_core_mail_message'
p1791
(dp1792
g6
(dp1793
g48
S'_home_deanna_django-deanna_lib_python2_7_site-packages_Django-1_7_4-py2_7_egg_django_core_mail_message.html'
p1794
sg50
S'/home/deanna/django-deanna/lib/python2.7/site-packages/Django-1.7.4-py2.7.egg/django/core/mail/message'
p1795
sg52
g13
(g14
g15
NtRp1796
(dp1797
g18
I1
sg19
I0
sg20
I242
sg21
I0
sg22
I0
sg23
I182
sg24
I0
sbssg25
S'\xe4\x0b\x94\xf3\xe2\xb6\xf7(\xba;\x8a\x81[\xd9y\xa9'
p1798
ssS'_home_deanna_django-deanna_lib_python2_7_site-packages_Django-1_7_4-py2_7_egg_django_db_backends_sqlite3_creation'
p1799
(dp1800
g6
(dp1801
g48
S'_home_deanna_django-deanna_lib_python2_7_site-packages_Django-1_7_4-py2_7_egg_django_db_backends_sqlite3_creation.html'
p1802
sg50
S'/home/deanna/django-deanna/lib/python2.7/site-packages/Django-1.7.4-py2.7.egg/django/db/backends/sqlite3/creation'
p1803
sg52
g13
(g14
g15
NtRp1804
(dp1805
g18
I1
sg19
I0
sg20
I42
sg21
I0
sg22
I0
sg23
I16
sg24
I0
sbssg25
S"\x81b\x1a\x11\x1b\x82Zm\xcey\xc0\xf2\x91;'v"
p1806
ssS'_home_deanna_django-deanna_lib_python2_7_site-packages_Django-1_7_4-py2_7_egg_django_templatetags_static'
p1807
(dp1808
g29
(dp1809
g8
S'_home_deanna_django-deanna_lib_python2_7_site-packages_Django-1_7_4-py2_7_egg_django_templatetags_static.html'
p1810
sg10
S'/home/deanna/django-deanna/lib/python2.7/site-packages/Django-1.7.4-py2.7.egg/django/templatetags/static'
p1811
sg12
g13
(g14
g15
NtRp1812
(dp1813
g18
I1
sg19
I0
sg20
I68
sg21
I0
sg22
I0
sg23
I27
sg24
I0
sbssg35
S'\xb1\xa1Mo\xf6]X\xf9-\xc6Dd\x1b\x8cK\xb4'
p1814
ssS'_home_deanna_django-deanna_lib_python2_7_site-packages_Django-1_7_4-py2_7_egg_django_db_models_sql_aggregates'
p1815
(dp1816
g6
(dp1817
g8
S'_home_deanna_django-deanna_lib_python2_7_site-packages_Django-1_7_4-py2_7_egg_django_db_models_sql_aggregates.html'
p1818
sg10
S'/home/deanna/django-deanna/lib/python2.7/site-packages/Django-1.7.4-py2.7.egg/django/db/models/sql/aggregates'
p1819
sg12
g13
(g14
g15
NtRp1820
(dp1821
g18
I1
sg19
I0
sg20
I70
sg21
I0
sg22
I0
sg23
I16
sg24
I0
sbssg25
S'\xad\xea\x81\xd2\xab\x7f\x96\x01S\x1d\x8aXn\xbaa|'
p1822
ssS'_home_deanna_django-deanna_lib_python2_7_site-packages_Django-1_7_4-py2_7_egg_django_dispatch_weakref_backports'
p1823
(dp1824
g6
(dp1825
g48
S'_home_deanna_django-deanna_lib_python2_7_site-packages_Django-1_7_4-py2_7_egg_django_dispatch_weakref_backports.html'
p1826
sg50
S'/home/deanna/django-deanna/lib/python2.7/site-packages/Django-1.7.4-py2.7.egg/django/dispatch/weakref_backports'
p1827
sg52
g13
(g14
g15
NtRp1828
(dp1829
g18
I1
sg19
I0
sg20
I40
sg21
I0
sg22
I0
sg23
I18
sg24
I0
sbssg25
S'\xbd\xf3\x1a\x81A\xe9\xf5\xc0\x1e\x17\xa2a\x00\x8an\xc3'
p1830
ssS'_home_deanna_django-deanna_lib_python2_7_site-packages_Django-1_7_4-py2_7_egg_django_utils_dateformat'
p1831
(dp1832
g6
(dp1833
g48
S'_home_deanna_django-deanna_lib_python2_7_site-packages_Django-1_7_4-py2_7_egg_django_utils_dateformat.html'
p1834
sg50
S'/home/deanna/django-deanna/lib/python2.7/site-packages/Django-1.7.4-py2.7.egg/django/utils/dateformat'
p1835
sg52
g13
(g14
g15
NtRp1836
(dp1837
g18
I1
sg19
I0
sg20
I184
sg21
I0
sg22
I0
sg23
I124
sg24
I0
sbssg25
S'\xe3\x02\\t\t\xcc\xccv\xe6N\xb3q\x13\x8f\xa8\xcc'
p1838
ssS'_home_deanna_django-deanna_lib_python2_7_site-packages_Django-1_7_4-py2_7_egg_django_contrib_admin_helpers'
p1839
(dp1840
g6
(dp1841
g48
S'_home_deanna_django-deanna_lib_python2_7_site-packages_Django-1_7_4-py2_7_egg_django_contrib_admin_helpers.html'
p1842
sg50
S'/home/deanna/django-deanna/lib/python2.7/site-packages/Django-1.7.4-py2.7.egg/django/contrib/admin/helpers'
p1843
sg52
g13
(g14
g15
NtRp1844
(dp1845
g18
I1
sg19
I0
sg20
I229
sg21
I0
sg22
I0
sg23
I168
sg24
I0
sbssg25
S'q\xa2\x10\x857\x87\x00\xf2\xd0\xabF\xb4CC\x12\xda'
p1846
ssS'_home_deanna_django-deanna_lib_python2_7_site-packages_Django-1_7_4-py2_7_egg_django_core_files_uploadhandler'
p1847
(dp1848
g6
(dp1849
g48
S'_home_deanna_django-deanna_lib_python2_7_site-packages_Django-1_7_4-py2_7_egg_django_core_files_uploadhandler.html'
p1850
sg50
S'/home/deanna/django-deanna/lib/python2.7/site-packages/Django-1.7.4-py2.7.egg/django/core/files/uploadhandler'
p1851
sg52
g13
(g14
g15
NtRp1852
(dp1853
g18
I1
sg19
I0
sg20
I78
sg21
I0
sg22
I0
sg23
I42
sg24
I0
sbssg25
S'l(p_\x7fk\x90\x0cR\xbe\xc0\xf8\x1d6I\x94'
p1854
ssS'_home_deanna_django-deanna_lib_python2_7_site-packages_Django-1_7_4-py2_7_egg_django_db_migrations_loader'
p1855
(dp1856
g6
(dp1857
g48
S'_home_deanna_django-deanna_lib_python2_7_site-packages_Django-1_7_4-py2_7_egg_django_db_migrations_loader.html'
p1858
sg50
S'/home/deanna/django-deanna/lib/python2.7/site-packages/Django-1.7.4-py2.7.egg/django/db/migrations/loader'
p1859
sg52
g13
(g14
g15
NtRp1860
(dp1861
g18
I1
sg19
I0
sg20
I171
sg21
I0
sg22
I0
sg23
I55
sg24
I0
sbssg25
S'c`\xd3t\xc9=\xd5\x02\xc4%)\xd1\xb1\x8cu6'
p1862
ssS'_home_deanna_django-deanna_lib_python2_7_site-packages_tastypie_throttle'
p1863
(dp1864
g29
(dp1865
g8
S'_home_deanna_django-deanna_lib_python2_7_site-packages_tastypie_throttle.html'
p1866
sg10
S'/home/deanna/django-deanna/lib/python2.7/site-packages/tastypie/throttle'
p1867
sg12
g13
(g14
g15
NtRp1868
(dp1869
g18
I1
sg19
I0
sg20
I40
sg21
I0
sg22
I0
sg23
I22
sg24
I0
sbssg35
S'\xd6\xe9\xdd\x13x)?\xa4\x9c\xba!\xb1\x82<\x88n'
p1870
ssS'article___init__'
p1871
(dp1872
g6
(dp1873
g48
S'article___init__.html'
p1874
sg50
S'article/__init__'
p1875
sg52
g13
(g14
g15
NtRp1876
(dp1877
g18
I1
sg19
I0
sg20
I0
sg21
I0
sg22
I0
sg23
I0
sg24
I0
sbssg25
S'\xca\xf5\x9f\x7f\x88\xdfa\x831|T\x1d\xbc}\xa5v'
p1878
ssS'_home_deanna_django-deanna_lib_python2_7_site-packages_Django-1_7_4-py2_7_egg_django_conf_locale___init__'
p1879
(dp1880
g29
(dp1881
g8
S'_home_deanna_django-deanna_lib_python2_7_site-packages_Django-1_7_4-py2_7_egg_django_conf_locale___init__.html'
p1882
sg10
S'/home/deanna/django-deanna/lib/python2.7/site-packages/Django-1.7.4-py2.7.egg/django/conf/locale/__init__'
p1883
sg12
g13
(g14
g15
NtRp1884
(dp1885
g18
I1
sg19
I0
sg20
I2
sg21
I0
sg22
I0
sg23
I0
sg24
I0
sbssg35
S'\x8b\xb7\xa9\xd2\xde\xc47F;=\x9aY7=fI'
p1886
ssS'_home_deanna_django-deanna_lib_python2_7_site-packages_Django-1_7_4-py2_7_egg_django_contrib_comments_views_moderation'
p1887
(dp1888
g6
(dp1889
g48
S'_home_deanna_django-deanna_lib_python2_7_site-packages_Django-1_7_4-py2_7_egg_django_contrib_comments_views_moderation.html'
p1890
sg50
S'/home/deanna/django-deanna/lib/python2.7/site-packages/Django-1.7.4-py2.7.egg/django/contrib/comments/views/moderation'
p1891
sg52
g13
(g14
g15
NtRp1892
(dp1893
g18
I1
sg19
I0
sg20
I49
sg21
I0
sg22
I0
sg23
I26
sg24
I0
sbssg25
S'\xb2\xb9L\xa8\x92_W2\xc2p\xf8\xd9\xbe\xedz\xd4'
p1894
ssS'_home_deanna_django-deanna_lib_python2_7_site-packages_Django-1_7_4-py2_7_egg_django_contrib_contenttypes_models'
p1895
(dp1896
g6
(dp1897
g48
S'_home_deanna_django-deanna_lib_python2_7_site-packages_Django-1_7_4-py2_7_egg_django_contrib_contenttypes_models.html'
p1898
sg50
S'/home/deanna/django-deanna/lib/python2.7/site-packages/Django-1.7.4-py2.7.egg/django/contrib/contenttypes/models'
p1899
sg52
g13
(g14
g15
NtRp1900
(dp1901
g18
I1
sg19
I0
sg20
I105
sg21
I0
sg22
I0
sg23
I54
sg24
I0
sbssg25
S'\xbf\xf9\xf6\xda\xbf\x93b\x16\xe6\xc2\xeb.\xd0\xbeEv'
p1902
ssS'_home_deanna_django-deanna_lib_python2_7_site-packages_Django-1_7_4-py2_7_egg_django_contrib_comments_signals'
p1903
(dp1904
g6
(dp1905
g48
S'_home_deanna_django-deanna_lib_python2_7_site-packages_Django-1_7_4-py2_7_egg_django_contrib_comments_signals.html'
p1906
sg50
S'/home/deanna/django-deanna/lib/python2.7/site-packages/Django-1.7.4-py2.7.egg/django/contrib/comments/signals'
p1907
sg52
g13
(g14
g15
NtRp1908
(dp1909
g18
I1
sg19
I0
sg20
I4
sg21
I0
sg22
I0
sg23
I0
sg24
I0
sbssg25
S'\xda?\xf0\x8e\x18*\xc9\xf0^?\xa3E}\xd0Q\xec'
p1910
ssS'_home_deanna_django-deanna_lib_python2_7_site-packages_Django-1_7_4-py2_7_egg_django_core_exceptions'
p1911
(dp1912
g6
(dp1913
g48
S'_home_deanna_django-deanna_lib_python2_7_site-packages_Django-1_7_4-py2_7_egg_django_core_exceptions.html'
p1914
sg50
S'/home/deanna/django-deanna/lib/python2.7/site-packages/Django-1.7.4-py2.7.egg/django/core/exceptions'
p1915
sg52
g13
(g14
g15
NtRp1916
(dp1917
g18
I1
sg19
I0
sg20
I87
sg21
I0
sg22
I0
sg23
I47
sg24
I0
sbssg25
S'$\x83W\xdcy\xc1uyB\x10!\xa3Q\xa2\x01\xb3'
p1918
ssS'article_migrations_0003_article_thumbnail'
p1919
(dp1920
g6
(dp1921
g48
S'article_migrations_0003_article_thumbnail.html'
p1922
sg50
S'article/migrations/0003_article_thumbnail'
p1923
sg52
g13
(g14
g15
NtRp1924
(dp1925
g18
I1
sg19
I0
sg20
I6
sg21
I0
sg22
I0
sg23
I0
sg24
I0
sbssg25
S'\x8d\xcf)\xa8\x93W\xef}\x85\xdf\xce\x03d\xed\xe2\xa6'
p1926
ssS'_home_deanna_django-deanna_lib_python2_7_site-packages_Django-1_7_4-py2_7_egg_django_contrib_auth_admin'
p1927
(dp1928
g6
(dp1929
g8
S'_home_deanna_django-deanna_lib_python2_7_site-packages_Django-1_7_4-py2_7_egg_django_contrib_auth_admin.html'
p1930
sg10
S'/home/deanna/django-deanna/lib/python2.7/site-packages/Django-1.7.4-py2.7.egg/django/contrib/auth/admin'
p1931
sg12
g13
(g14
g15
NtRp1932
(dp1933
g18
I1
sg19
I0
sg20
I99
sg21
I0
sg22
I0
sg23
I47
sg24
I0
sbssg25
S'\xa4\xcb\xe1*Sx\xeb\x97<\xe6r?\r\xc4Mp'
p1934
ssS'_home_deanna_django-deanna_lib_python2_7_site-packages_Django-1_7_4-py2_7_egg_django_conf_locale_en___init__'
p1935
(dp1936
g29
(dp1937
g8
S'_home_deanna_django-deanna_lib_python2_7_site-packages_Django-1_7_4-py2_7_egg_django_conf_locale_en___init__.html'
p1938
sg10
S'/home/deanna/django-deanna/lib/python2.7/site-packages/Django-1.7.4-py2.7.egg/django/conf/locale/en/__init__'
p1939
sg12
g13
(g14
g15
NtRp1940
(dp1941
g18
I1
sg19
I0
sg20
I0
sg21
I0
sg22
I0
sg23
I0
sg24
I0
sbssg35
S'\xca\xf5\x9f\x7f\x88\xdfa\x831|T\x1d\xbc}\xa5v'
p1942
ssS'article_models'
p1943
(dp1944
g6
(dp1945
g8
S'article_models.html'
p1946
sg10
S'article/models'
p1947
sg12
g13
(g14
g15
NtRp1948
(dp1949
g18
I1
sg19
I0
sg20
I19
sg21
I0
sg22
I0
sg23
I0
sg24
I0
sbssg25
S'\x88_\xa2\x9b\x068"\x8e\x01\r3}Xg\xca\xe9'
p1950
ssS'_home_deanna_django-deanna_lib_python2_7_site-packages_Django-1_7_4-py2_7_egg_django_test_signals'
p1951
(dp1952
g6
(dp1953
g48
S'_home_deanna_django-deanna_lib_python2_7_site-packages_Django-1_7_4-py2_7_egg_django_test_signals.html'
p1954
sg50
S'/home/deanna/django-deanna/lib/python2.7/site-packages/Django-1.7.4-py2.7.egg/django/test/signals'
p1955
sg52
g13
(g14
g15
NtRp1956
(dp1957
g18
I1
sg19
I0
sg20
I79
sg21
I0
sg22
I0
sg23
I57
sg24
I0
sbssg25
S'\xf1\xb45\xec\x02\xf3\xa4\x1a\xe7xou\xeb}\xfb\xb4'
p1958
ssS'_home_deanna_django-deanna_lib_python2_7_site-packages_Django-1_7_4-py2_7_egg_django_contrib_contenttypes_migrations_0001_initial'
p1959
(dp1960
g6
(dp1961
g48
S'_home_deanna_django-deanna_lib_python2_7_site-packages_Django-1_7_4-py2_7_egg_django_contrib_contenttypes_migrations_0001_initial.html'
p1962
sg50
S'/home/deanna/django-deanna/lib/python2.7/site-packages/Django-1.7.4-py2.7.egg/django/contrib/contenttypes/migrations/0001_initial'
p1963
sg52
g13
(g14
g15
NtRp1964
(dp1965
g18
I1
sg19
I0
sg20
I5
sg21
I0
sg22
I0
sg23
I0
sg24
I0
sbssg25
S'hY9\xebs\xee\x9c\xe0\xed\x1f\xd4\xecD\x1d\x8b\xd8'
p1966
ssS'_home_deanna_django-deanna_lib_python2_7_site-packages_Django-1_7_4-py2_7_egg_django_core_handlers_base'
p1967
(dp1968
g6
(dp1969
g8
S'_home_deanna_django-deanna_lib_python2_7_site-packages_Django-1_7_4-py2_7_egg_django_core_handlers_base.html'
p1970
sg10
S'/home/deanna/django-deanna/lib/python2.7/site-packages/Django-1.7.4-py2.7.egg/django/core/handlers/base'
p1971
sg12
g13
(g14
g15
NtRp1972
(dp1973
g18
I1
sg19
I0
sg20
I145
sg21
I0
sg22
I0
sg23
I68
sg24
I0
sbssg25
S' \xbdz\x0f:!\x1f\xf5\xd8\xdc7\t\xe1\xd3\x80R'
p1974
ssS'_home_deanna_django-deanna_lib_python2_7_site-packages_dateutil_tzwin'
p1975
(dp1976
g6
(dp1977
g48
S'_home_deanna_django-deanna_lib_python2_7_site-packages_dateutil_tzwin.html'
p1978
sg50
S'/home/deanna/django-deanna/lib/python2.7/site-packages/dateutil/tzwin'
p1979
sg52
g13
(g14
g15
NtRp1980
(dp1981
g18
I1
sg19
I0
sg20
I103
sg21
I0
sg22
I0
sg23
I100
sg24
I0
sbssg25
S'\x88V\x06^\x9e\x89@\xfcgfX\xe7@h\xb0w'
p1982
ssS'_home_deanna_django-deanna_lib_python2_7_site-packages_Django-1_7_4-py2_7_egg_django_utils_http'
p1983
(dp1984
g6
(dp1985
g8
S'_home_deanna_django-deanna_lib_python2_7_site-packages_Django-1_7_4-py2_7_egg_django_utils_http.html'
p1986
sg10
S'/home/deanna/django-deanna/lib/python2.7/site-packages/Django-1.7.4-py2.7.egg/django/utils/http'
p1987
sg12
g13
(g14
g15
NtRp1988
(dp1989
g18
I1
sg19
I0
sg20
I135
sg21
I0
sg22
I0
sg23
I83
sg24
I0
sbssg25
S'\xad\x9bCr\xdfo\xf7\xa8\x1d\x18\xden\xd1`\xae8'
p1990
ssS'_home_deanna_django-deanna_lib_python2_7_site-packages_Django-1_7_4-py2_7_egg_django_contrib_auth_middleware'
p1991
(dp1992
g29
(dp1993
g8
S'_home_deanna_django-deanna_lib_python2_7_site-packages_Django-1_7_4-py2_7_egg_django_contrib_auth_middleware.html'
p1994
sg10
S'/home/deanna/django-deanna/lib/python2.7/site-packages/Django-1.7.4-py2.7.egg/django/contrib/auth/middleware'
p1995
sg12
g13
(g14
g15
NtRp1996
(dp1997
g18
I1
sg19
I0
sg20
I50
sg21
I0
sg22
I0
sg23
I32
sg24
I0
sbssg35
S'\xd5k\xadTp\xae\xf1\x12uH\xaf\x1cT\xa6\xf2\xf6'
p1998
ssS'_home_deanna_django-deanna_lib_python2_7_site-packages_Django-1_7_4-py2_7_egg_django_dispatch_dispatcher'
p1999
(dp2000
g6
(dp2001
g8
S'_home_deanna_django-deanna_lib_python2_7_site-packages_Django-1_7_4-py2_7_egg_django_dispatch_dispatcher.html'
p2002
sg10
S'/home/deanna/django-deanna/lib/python2.7/site-packages/Django-1.7.4-py2.7.egg/django/dispatch/dispatcher'
p2003
sg12
g13
(g14
g15
NtRp2004
(dp2005
g18
I1
sg19
I0
sg20
I135
sg21
I0
sg22
I0
sg23
I32
sg24
I0
sbssg25
S'N\xf0\xc0-\xe1\xa4e~EG\xd8\x14ff^O'
p2006
ssS'_home_deanna_django-deanna_lib_python2_7_site-packages_Django-1_7_4-py2_7_egg_django_template___init__'
p2007
(dp2008
g6
(dp2009
g48
S'_home_deanna_django-deanna_lib_python2_7_site-packages_Django-1_7_4-py2_7_egg_django_template___init__.html'
p2010
sg50
S'/home/deanna/django-deanna/lib/python2.7/site-packages/Django-1.7.4-py2.7.egg/django/template/__init__'
p2011
sg52
g13
(g14
g15
NtRp2012
(dp2013
g18
I1
sg19
I0
sg20
I6
sg21
I0
sg22
I0
sg23
I0
sg24
I0
sbssg25
S'\xbd\xcbV\x04\\\x82\xb5\x18\xd1\xcfk\x85 DD\xba'
p2014
ssS'_home_deanna_django-deanna_lib_python2_7_site-packages_Django-1_7_4-py2_7_egg_django_db_migrations_operations_base'
p2015
(dp2016
g6
(dp2017
g48
S'_home_deanna_django-deanna_lib_python2_7_site-packages_Django-1_7_4-py2_7_egg_django_db_migrations_operations_base.html'
p2018
sg50
S'/home/deanna/django-deanna/lib/python2.7/site-packages/Django-1.7.4-py2.7.egg/django/db/migrations/operations/base'
p2019
sg52
g13
(g14
g15
NtRp2020
(dp2021
g18
I1
sg19
I0
sg20
I33
sg21
I0
sg22
I0
sg23
I10
sg24
I0
sbssg25
S"f\xf7i\xc4\x88&!F\x83\xd6\x05'\xad\xd5\xacK"
p2022
ssS'_home_deanna_django-deanna_lib_python2_7_site-packages_Django-1_7_4-py2_7_egg_django_core_cache___init__'
p2023
(dp2024
g6
(dp2025
g8
S'_home_deanna_django-deanna_lib_python2_7_site-packages_Django-1_7_4-py2_7_egg_django_core_cache___init__.html'
p2026
sg10
S'/home/deanna/django-deanna/lib/python2.7/site-packages/Django-1.7.4-py2.7.egg/django/core/cache/__init__'
p2027
sg12
g13
(g14
g15
NtRp2028
(dp2029
g18
I1
sg19
I0
sg20
I72
sg21
I0
sg22
I0
sg23
I23
sg24
I0
sbssg25
S'\xabF\x83p\\\xd7\x94\xfe\xe5kx\x9e\xbem\xb5n'
p2030
ssS'_home_deanna_django-deanna_lib_python2_7_site-packages_Django-1_7_4-py2_7_egg_django_contrib_comments_templatetags___init__'
p2031
(dp2032
g29
(dp2033
g8
S'_home_deanna_django-deanna_lib_python2_7_site-packages_Django-1_7_4-py2_7_egg_django_contrib_comments_templatetags___init__.html'
p2034
sg10
S'/home/deanna/django-deanna/lib/python2.7/site-packages/Django-1.7.4-py2.7.egg/django/contrib/comments/templatetags/__init__'
p2035
sg12
g13
(g14
g15
NtRp2036
(dp2037
g18
I1
sg19
I0
sg20
I0
sg21
I0
sg22
I0
sg23
I0
sg24
I0
sbssg35
S'\xca\xf5\x9f\x7f\x88\xdfa\x831|T\x1d\xbc}\xa5v'
p2038
ssS'_home_deanna_django-deanna_lib_python2_7_site-packages_Django-1_7_4-py2_7_egg_django_utils_html'
p2039
(dp2040
g6
(dp2041
g8
S'_home_deanna_django-deanna_lib_python2_7_site-packages_Django-1_7_4-py2_7_egg_django_utils_html.html'
p2042
sg10
S'/home/deanna/django-deanna/lib/python2.7/site-packages/Django-1.7.4-py2.7.egg/django/utils/html'
p2043
sg12
g13
(g14
g15
NtRp2044
(dp2045
g18
I1
sg19
I0
sg20
I186
sg21
I0
sg22
I0
sg23
I123
sg24
I0
sbssg25
S'\x9a\x96K~\x15\x85\xff\xa1\xb2\tX&c\xbc`\x91'
p2046
ssS'_home_deanna_django-deanna_lib_python2_7_site-packages_Django-1_7_4-py2_7_egg_django_contrib_sessions_management___init__'
p2047
(dp2048
g6
(dp2049
g48
S'_home_deanna_django-deanna_lib_python2_7_site-packages_Django-1_7_4-py2_7_egg_django_contrib_sessions_management___init__.html'
p2050
sg50
S'/home/deanna/django-deanna/lib/python2.7/site-packages/Django-1.7.4-py2.7.egg/django/contrib/sessions/management/__init__'
p2051
sg52
g13
(g14
g15
NtRp2052
(dp2053
g18
I1
sg19
I0
sg20
I0
sg21
I0
sg22
I0
sg23
I0
sg24
I0
sbssg25
S'\xca\xf5\x9f\x7f\x88\xdfa\x831|T\x1d\xbc}\xa5v'
p2054
ssS'_home_deanna_django-deanna_lib_python2_7_site-packages_Django-1_7_4-py2_7_egg_django_utils_functional'
p2055
(dp2056
g6
(dp2057
g8
S'_home_deanna_django-deanna_lib_python2_7_site-packages_Django-1_7_4-py2_7_egg_django_utils_functional.html'
p2058
sg10
S'/home/deanna/django-deanna/lib/python2.7/site-packages/Django-1.7.4-py2.7.egg/django/utils/functional'
p2059
sg12
g13
(g14
g15
NtRp2060
(dp2061
g18
I1
sg19
I0
sg20
I232
sg21
I0
sg22
I0
sg23
I92
sg24
I0
sbssg25
S'$\xbdf\x8f\xad\xd7\xd8\xb2\xcf\x94\xe6\x82\x0b\xc4%~'
p2062
ssS'_home_deanna_django-deanna_lib_python2_7_site-packages_Django-1_7_4-py2_7_egg_django_forms_models'
p2063
(dp2064
g6
(dp2065
g48
S'_home_deanna_django-deanna_lib_python2_7_site-packages_Django-1_7_4-py2_7_egg_django_forms_models.html'
p2066
sg50
S'/home/deanna/django-deanna/lib/python2.7/site-packages/Django-1.7.4-py2.7.egg/django/forms/models'
p2067
sg52
g13
(g14
g15
NtRp2068
(dp2069
g18
I1
sg19
I0
sg20
I666
sg21
I0
sg22
I0
sg23
I491
sg24
I0
sbssg25
S'(\xf8\xe2*\tD\x810\xff.\x1a\x9eO+\x13\xc1'
p2070
ssS'django_test_views'
p2071
(dp2072
g29
(dp2073
g8
S'django_test_views.html'
p2074
sg10
S'django_test/views'
p2075
sg12
g13
(g14
g15
NtRp2076
(dp2077
g18
I1
sg19
I0
sg20
I36
sg21
I0
sg22
I0
sg23
I24
sg24
I0
sbssg35
S'YEL\xb1\xea7\xe0l\xb7e\xfa3\x9ey\x84\xac'
p2078
ssS'_home_deanna_django-deanna_lib_python2_7_site-packages_Django-1_7_4-py2_7_egg_django_core_management_color'
p2079
(dp2080
g6
(dp2081
g48
S'_home_deanna_django-deanna_lib_python2_7_site-packages_Django-1_7_4-py2_7_egg_django_core_management_color.html'
p2082
sg50
S'/home/deanna/django-deanna/lib/python2.7/site-packages/Django-1.7.4-py2.7.egg/django/core/management/color'
p2083
sg52
g13
(g14
g15
NtRp2084
(dp2085
g18
I1
sg19
I0
sg20
I30
sg21
I0
sg22
I0
sg23
I3
sg24
I0
sbssg25
S'\x08f\xe9\xe8\x15\x86\xac\x8a\x06\x1e>\x98\x07\x15\x88\xc7'
p2086
ssS'_home_deanna_django-deanna_lib_python2_7_site-packages_Django-1_7_4-py2_7_egg_django_utils_safestring'
p2087
(dp2088
g6
(dp2089
g8
S'_home_deanna_django-deanna_lib_python2_7_site-packages_Django-1_7_4-py2_7_egg_django_utils_safestring.html'
p2090
sg10
S'/home/deanna/django-deanna/lib/python2.7/site-packages/Django-1.7.4-py2.7.egg/django/utils/safestring'
p2091
sg12
g13
(g14
g15
NtRp2092
(dp2093
g18
I1
sg19
I0
sg20
I63
sg21
I0
sg22
I0
sg23
I27
sg24
I0
sbssg25
S'\x9e9\xf4\x89\x88x\xa2\x1b\x18A\x99&\xaf\xf2?U'
p2094
ssS'_home_deanna_django-deanna_lib_python2_7_site-packages_tastypie_fields'
p2095
(dp2096
g29
(dp2097
g8
S'_home_deanna_django-deanna_lib_python2_7_site-packages_tastypie_fields.html'
p2098
sg10
S'/home/deanna/django-deanna/lib/python2.7/site-packages/tastypie/fields'
p2099
sg12
g13
(g14
g15
NtRp2100
(dp2101
g18
I1
sg19
I0
sg20
I433
sg21
I0
sg22
I0
sg23
I308
sg24
I0
sbssg35
S'\xa1\xe5\xb8\x96\x9f>\x0f\xfd\x83\x86\xd3\x8d\x90\x13G)'
p2102
ssS'_home_deanna_django-deanna_lib_python2_7_site-packages_Django-1_7_4-py2_7_egg_django_contrib_messages_apps'
p2103
(dp2104
g6
(dp2105
g48
S'_home_deanna_django-deanna_lib_python2_7_site-packages_Django-1_7_4-py2_7_egg_django_contrib_messages_apps.html'
p2106
sg50
S'/home/deanna/django-deanna/lib/python2.7/site-packages/Django-1.7.4-py2.7.egg/django/contrib/messages/apps'
p2107
sg52
g13
(g14
g15
NtRp2108
(dp2109
g18
I1
sg19
I0
sg20
I5
sg21
I0
sg22
I0
sg23
I0
sg24
I0
sbssg25
S')m\xd9\x94\xbc0\xa5i~\xfc\x8eK\xe1{0\x94'
p2110
ssS'_home_deanna_django-deanna_lib_python2_7_site-packages_Django-1_7_4-py2_7_egg_django_contrib_admin_migrations___init__'
p2111
(dp2112
g6
(dp2113
g48
S'_home_deanna_django-deanna_lib_python2_7_site-packages_Django-1_7_4-py2_7_egg_django_contrib_admin_migrations___init__.html'
p2114
sg50
S'/home/deanna/django-deanna/lib/python2.7/site-packages/Django-1.7.4-py2.7.egg/django/contrib/admin/migrations/__init__'
p2115
sg52
g13
(g14
g15
NtRp2116
(dp2117
g18
I1
sg19
I0
sg20
I0
sg21
I0
sg22
I0
sg23
I0
sg24
I0
sbssg25
S'\xca\xf5\x9f\x7f\x88\xdfa\x831|T\x1d\xbc}\xa5v'
p2118
ssS'_home_deanna_django-deanna_lib_python2_7_site-packages_Django-1_7_4-py2_7_egg_django_db_models_sql___init__'
p2119
(dp2120
g6
(dp2121
g48
S'_home_deanna_django-deanna_lib_python2_7_site-packages_Django-1_7_4-py2_7_egg_django_db_models_sql___init__.html'
p2122
sg50
S'/home/deanna/django-deanna/lib/python2.7/site-packages/Django-1.7.4-py2.7.egg/django/db/models/sql/__init__'
p2123
sg52
g13
(g14
g15
NtRp2124
(dp2125
g18
I1
sg19
I0
sg20
I5
sg21
I0
sg22
I0
sg23
I0
sg24
I0
sbssg25
S'\xe0&\xa6\xf7x\xac\xe6\xde\xb7\xfb\x06\xee\xe3P^g'
p2126
ssS'_home_deanna_django-deanna_lib_python2_7_site-packages_Django-1_7_4-py2_7_egg_django_core_management_commands_dumpdata'
p2127
(dp2128
g6
(dp2129
g48
S'_home_deanna_django-deanna_lib_python2_7_site-packages_Django-1_7_4-py2_7_egg_django_core_management_commands_dumpdata.html'
p2130
sg50
S'/home/deanna/django-deanna/lib/python2.7/site-packages/Django-1.7.4-py2.7.egg/django/core/management/commands/dumpdata'
p2131
sg52
g13
(g14
g15
NtRp2132
(dp2133
g18
I1
sg19
I0
sg20
I145
sg21
I0
sg22
I0
sg23
I91
sg24
I0
sbssg25
S'K<\x1a \xbbtZ(\x19\xa1\x05\x12\xe9c\xd7\x95'
p2134
ssS'_home_deanna_django-deanna_lib_python2_7_site-packages_Django-1_7_4-py2_7_egg_django_contrib_messages_storage_cookie'
p2135
(dp2136
g29
(dp2137
g8
S'_home_deanna_django-deanna_lib_python2_7_site-packages_Django-1_7_4-py2_7_egg_django_contrib_messages_storage_cookie.html'
p2138
sg10
S'/home/deanna/django-deanna/lib/python2.7/site-packages/Django-1.7.4-py2.7.egg/django/contrib/messages/storage/cookie'
p2139
sg12
g13
(g14
g15
NtRp2140
(dp2141
g18
I1
sg19
I0
sg20
I83
sg21
I0
sg22
I0
sg23
I60
sg24
I0
sbssg35
S'\xde&\xd8xX\xfds\x95\xea\xe8D\xd5\xf5z\xfb\\'
p2142
ssS'_home_deanna_django-deanna_lib_python2_7_site-packages_Django-1_7_4-py2_7_egg_django_contrib_sites_shortcuts'
p2143
(dp2144
g6
(dp2145
g48
S'_home_deanna_django-deanna_lib_python2_7_site-packages_Django-1_7_4-py2_7_egg_django_contrib_sites_shortcuts.html'
p2146
sg50
S'/home/deanna/django-deanna/lib/python2.7/site-packages/Django-1.7.4-py2.7.egg/django/contrib/sites/shortcuts'
p2147
sg52
g13
(g14
g15
NtRp2148
(dp2149
g18
I1
sg19
I0
sg20
I8
sg21
I0
sg22
I0
sg23
I5
sg24
I0
sbssg25
S'\xde\xd7\x16\xc7\xd5m\xe1\xd4\xa1(}\xe3O\xe4\xe1\x13'
p2150
ssS'_home_deanna_django-deanna_lib_python2_7_site-packages_Django-1_7_4-py2_7_egg_django_contrib_sites_requests'
p2151
(dp2152
g6
(dp2153
g48
S'_home_deanna_django-deanna_lib_python2_7_site-packages_Django-1_7_4-py2_7_egg_django_contrib_sites_requests.html'
p2154
sg50
S'/home/deanna/django-deanna/lib/python2.7/site-packages/Django-1.7.4-py2.7.egg/django/contrib/sites/requests'
p2155
sg52
g13
(g14
g15
NtRp2156
(dp2157
g18
I1
sg19
I0
sg20
I12
sg21
I0
sg22
I0
sg23
I4
sg24
I0
sbssg25
S'\x82\t\xca\x19\xff`,\xd2-\x83-\x87\xed\xac\xefi'
p2158
ssS'_home_deanna_django-deanna_lib_python2_7_site-packages_Django-1_7_4-py2_7_egg_django_contrib_admin_migrations_0001_initial'
p2159
(dp2160
g6
(dp2161
g48
S'_home_deanna_django-deanna_lib_python2_7_site-packages_Django-1_7_4-py2_7_egg_django_contrib_admin_migrations_0001_initial.html'
p2162
sg50
S'/home/deanna/django-deanna/lib/python2.7/site-packages/Django-1.7.4-py2.7.egg/django/contrib/admin/migrations/0001_initial'
p2163
sg52
g13
(g14
g15
NtRp2164
(dp2165
g18
I1
sg19
I0
sg20
I6
sg21
I0
sg22
I0
sg23
I0
sg24
I0
sbssg25
S'm\x83\xc2\x1chZ\xc7\xc6\xec\x14\xf5\xf9\xf0\xc6\xaf~'
p2166
ssS'_home_deanna_django-deanna_lib_python2_7_site-packages_Django-1_7_4-py2_7_egg_django_contrib_admin_templatetags_admin_urls'
p2167
(dp2168
g6
(dp2169
g48
S'_home_deanna_django-deanna_lib_python2_7_site-packages_Django-1_7_4-py2_7_egg_django_contrib_admin_templatetags_admin_urls.html'
p2170
sg50
S'/home/deanna/django-deanna/lib/python2.7/site-packages/Django-1.7.4-py2.7.egg/django/contrib/admin/templatetags/admin_urls'
p2171
sg52
g13
(g14
g15
NtRp2172
(dp2173
g18
I1
sg19
I0
sg20
I38
sg21
I0
sg22
I0
sg23
I28
sg24
I0
sbssg25
S'\xb6n!\xf6\x91\xd2\xb1\x9d\xad\x04\xbb\xf61D\xc9o'
p2174
ssS'_home_deanna_django-deanna_lib_python2_7_site-packages_tastypie_bundle'
p2175
(dp2176
g29
(dp2177
g8
S'_home_deanna_django-deanna_lib_python2_7_site-packages_tastypie_bundle.html'
p2178
sg10
S'/home/deanna/django-deanna/lib/python2.7/site-packages/tastypie/bundle'
p2179
sg12
g13
(g14
g15
NtRp2180
(dp2181
g18
I1
sg19
I0
sg20
I14
sg21
I0
sg22
I0
sg23
I9
sg24
I0
sbssg35
S'Z\xa0\xe2\x80\x0c\\\x02\xa7\xe0\x97\x84\xd3l\xbe\xa6\xad'
p2182
ssS'_home_deanna_django-deanna_lib_python2_7_site-packages_Django-1_7_4-py2_7_egg_django_db_models_options'
p2183
(dp2184
g6
(dp2185
g48
S'_home_deanna_django-deanna_lib_python2_7_site-packages_Django-1_7_4-py2_7_egg_django_db_models_options.html'
p2186
sg50
S'/home/deanna/django-deanna/lib/python2.7/site-packages/Django-1.7.4-py2.7.egg/django/db/models/options'
p2187
sg52
g13
(g14
g15
NtRp2188
(dp2189
g18
I1
sg19
I0
sg20
I373
sg21
I0
sg22
I0
sg23
I97
sg24
I0
sbssg25
S'\x17\x03\xd6\x0b \x14,B\x9d\x85\xcb\xf9\x15h\xcdh'
p2190
ssS'_home_deanna_django-deanna_lib_python2_7_site-packages_Django-1_7_4-py2_7_egg_django_contrib_contenttypes_management'
p2191
(dp2192
g6
(dp2193
g48
S'_home_deanna_django-deanna_lib_python2_7_site-packages_Django-1_7_4-py2_7_egg_django_contrib_contenttypes_management.html'
p2194
sg50
S'/home/deanna/django-deanna/lib/python2.7/site-packages/Django-1.7.4-py2.7.egg/django/contrib/contenttypes/management'
p2195
sg52
g13
(g14
g15
NtRp2196
(dp2197
g18
I1
sg19
I0
sg20
I48
sg21
I0
sg22
I0
sg23
I22
sg24
I0
sbssg25
S'\xe9+]\x1a{\xb0\xe2\xa1\t\x11\x134mD1\x07'
p2198
ssS'_home_deanna_django-deanna_lib_python2_7_site-packages_Django-1_7_4-py2_7_egg_django_http_response'
p2199
(dp2200
g6
(dp2201
g8
S'_home_deanna_django-deanna_lib_python2_7_site-packages_Django-1_7_4-py2_7_egg_django_http_response.html'
p2202
sg10
S'/home/deanna/django-deanna/lib/python2.7/site-packages/Django-1.7.4-py2.7.egg/django/http/response'
p2203
sg12
g13
(g14
g15
NtRp2204
(dp2205
g18
I1
sg19
I0
sg20
I235
sg21
I0
sg22
I0
sg23
I90
sg24
I0
sbssg25
S'\xbb\xf6\xdfE\x9b\xa7S\x1e0\xfax\xcc\xac\xe9\x99\xd1'
p2206
ssS'_home_deanna_django-deanna_lib_python2_7_site-packages_Django-1_7_4-py2_7_egg_django_core_mail_utils'
p2207
(dp2208
g6
(dp2209
g48
S'_home_deanna_django-deanna_lib_python2_7_site-packages_Django-1_7_4-py2_7_egg_django_core_mail_utils.html'
p2210
sg50
S'/home/deanna/django-deanna/lib/python2.7/site-packages/Django-1.7.4-py2.7.egg/django/core/mail/utils'
p2211
sg52
g13
(g14
g15
NtRp2212
(dp2213
g18
I1
sg19
I0
sg20
I9
sg21
I0
sg22
I0
sg23
I4
sg24
I0
sbssg25
S'1;F\xfb\xb1\rUh=1\x8b}\x9c3\xc3\xbf'
p2214
ssS'_home_deanna_django-deanna_lib_python2_7_site-packages_Django-1_7_4-py2_7_egg_django_core_files_move'
p2215
(dp2216
g6
(dp2217
g48
S'_home_deanna_django-deanna_lib_python2_7_site-packages_Django-1_7_4-py2_7_egg_django_core_files_move.html'
p2218
sg50
S'/home/deanna/django-deanna/lib/python2.7/site-packages/Django-1.7.4-py2.7.egg/django/core/files/move'
p2219
sg52
g13
(g14
g15
NtRp2220
(dp2221
g18
I1
sg19
I0
sg20
I47
sg21
I0
sg22
I0
sg23
I40
sg24
I0
sbssg25
S'0\xbb\xaeZ\xe7X\xe5\xdf\xeeB\x95\xa1e\xd3\x0f\xb1'
p2222
ssS'article_forms'
p2223
(dp2224
g29
(dp2225
g8
S'article_forms.html'
p2226
sg10
S'article/forms'
p2227
sg12
g13
(g14
g15
NtRp2228
(dp2229
g18
I1
sg19
I0
sg20
I10
sg21
I0
sg22
I0
sg23
I0
sg24
I0
sbssg35
S'\x04\ni\xab\xdb\x01|\xc1\xc3W[\xcdx%\x16O'
p2230
ssS'_home_deanna_django-deanna_lib_python2_7_site-packages_Django-1_7_4-py2_7_egg_django_db_models_lookups'
p2231
(dp2232
g6
(dp2233
g48
S'_home_deanna_django-deanna_lib_python2_7_site-packages_Django-1_7_4-py2_7_egg_django_db_models_lookups.html'
p2234
sg50
S'/home/deanna/django-deanna/lib/python2.7/site-packages/Django-1.7.4-py2.7.egg/django/db/models/lookups'
p2235
sg52
g13
(g14
g15
NtRp2236
(dp2237
g18
I1
sg19
I0
sg20
I254
sg21
I0
sg22
I0
sg23
I87
sg24
I0
sbssg25
S'Y\xef\xe9\xe9\xc2zc\xdc \xab\x1cF\xee\xf9\xb2\x96'
p2238
ssS'_home_deanna_django-deanna_lib_python2_7_site-packages_Django-1_7_4-py2_7_egg_django_contrib_sites_migrations___init__'
p2239
(dp2240
g6
(dp2241
g48
S'_home_deanna_django-deanna_lib_python2_7_site-packages_Django-1_7_4-py2_7_egg_django_contrib_sites_migrations___init__.html'
p2242
sg50
S'/home/deanna/django-deanna/lib/python2.7/site-packages/Django-1.7.4-py2.7.egg/django/contrib/sites/migrations/__init__'
p2243
sg52
g13
(g14
g15
NtRp2244
(dp2245
g18
I1
sg19
I0
sg20
I0
sg21
I0
sg22
I0
sg23
I0
sg24
I0
sbssg25
S'\xca\xf5\x9f\x7f\x88\xdfa\x831|T\x1d\xbc}\xa5v'
p2246
ssS'_home_deanna_django-deanna_lib_python2_7_site-packages_Django-1_7_4-py2_7_egg_django_http_cookie'
p2247
(dp2248
g6
(dp2249
g8
S'_home_deanna_django-deanna_lib_python2_7_site-packages_Django-1_7_4-py2_7_egg_django_http_cookie.html'
p2250
sg10
S'/home/deanna/django-deanna/lib/python2.7/site-packages/Django-1.7.4-py2.7.egg/django/http/cookie'
p2251
sg12
g13
(g14
g15
NtRp2252
(dp2253
g18
I1
sg19
I0
sg20
I55
sg21
I0
sg22
I0
sg23
I30
sg24
I0
sbssg25
S'=\xf9\xfe\x10(\x88\xddey\x18\x18\xe0\xbe\x95\xdf\xa3'
p2254
ssS'_home_deanna_django-deanna_lib_python2_7_site-packages_Django-1_7_4-py2_7_egg_django_utils_tree'
p2255
(dp2256
g6
(dp2257
g48
S'_home_deanna_django-deanna_lib_python2_7_site-packages_Django-1_7_4-py2_7_egg_django_utils_tree.html'
p2258
sg50
S'/home/deanna/django-deanna/lib/python2.7/site-packages/Django-1.7.4-py2.7.egg/django/utils/tree'
p2259
sg52
g13
(g14
g15
NtRp2260
(dp2261
g18
I1
sg19
I0
sg20
I50
sg21
I0
sg22
I0
sg23
I20
sg24
I0
sbssg25
S'\x93\xad\x88\xceo\x86\xcb>\xc1\xf8\xc4\xbd\xe4\x0b\xf2\x16'
p2262
ssS'_home_deanna_django-deanna_lib_python2_7_site-packages_Django-1_7_4-py2_7_egg_django_contrib_sessions_middleware'
p2263
(dp2264
g29
(dp2265
g8
S'_home_deanna_django-deanna_lib_python2_7_site-packages_Django-1_7_4-py2_7_egg_django_contrib_sessions_middleware.html'
p2266
sg10
S'/home/deanna/django-deanna/lib/python2.7/site-packages/Django-1.7.4-py2.7.egg/django/contrib/sessions/middleware'
p2267
sg12
g13
(g14
g15
NtRp2268
(dp2269
g18
I1
sg19
I0
sg20
I31
sg21
I0
sg22
I0
sg23
I11
sg24
I0
sbssg35
S'\xdaBJ\x1dT\xf4\xd3\\[w\xeel\x17.\x82\xb3'
p2270
ssS'_home_deanna_django-deanna_lib_python2_7_site-packages_Django-1_7_4-py2_7_egg_django_core_checks_model_checks'
p2271
(dp2272
g6
(dp2273
g48
S'_home_deanna_django-deanna_lib_python2_7_site-packages_Django-1_7_4-py2_7_egg_django_core_checks_model_checks.html'
p2274
sg50
S'/home/deanna/django-deanna/lib/python2.7/site-packages/Django-1.7.4-py2.7.egg/django/core/checks/model_checks'
p2275
sg52
g13
(g14
g15
NtRp2276
(dp2277
g18
I1
sg19
I0
sg20
I28
sg21
I0
sg22
I0
sg23
I6
sg24
I0
sbssg25
S'UnZu\xe9\x0b\xcb/\xdb\x15\xbc1\xef\xba\xd3|'
p2278
ssS'_home_deanna_django-deanna_lib_python2_7_site-packages_Django-1_7_4-py2_7_egg_django_db_models_fields_subclassing'
p2279
(dp2280
g6
(dp2281
g48
S'_home_deanna_django-deanna_lib_python2_7_site-packages_Django-1_7_4-py2_7_egg_django_db_models_fields_subclassing.html'
p2282
sg50
S'/home/deanna/django-deanna/lib/python2.7/site-packages/Django-1.7.4-py2.7.egg/django/db/models/fields/subclassing'
p2283
sg52
g13
(g14
g15
NtRp2284
(dp2285
g18
I1
sg19
I0
sg20
I21
sg21
I0
sg22
I0
sg23
I14
sg24
I0
sbssg25
S"'\xde\xec\xb2\xaf\xf0\xfd\x9c.|\xf2\xe2\x8aR\x14\x94"
p2286
ssS'_home_deanna_django-deanna_lib_python2_7_site-packages_Django-1_7_4-py2_7_egg_django_utils_termcolors'
p2287
(dp2288
g6
(dp2289
g48
S'_home_deanna_django-deanna_lib_python2_7_site-packages_Django-1_7_4-py2_7_egg_django_utils_termcolors.html'
p2290
sg50
S'/home/deanna/django-deanna/lib/python2.7/site-packages/Django-1.7.4-py2.7.egg/django/utils/termcolors'
p2291
sg52
g13
(g14
g15
NtRp2292
(dp2293
g18
I1
sg19
I0
sg20
I57
sg21
I0
sg22
I0
sg23
I29
sg24
I0
sbssg25
S'$\xc93T\xd0\xaff;\x19\x98u\x1c\xae{\xad\x8a'
p2294
ssS'_home_deanna_django-deanna_lib_python2_7_site-packages_Django-1_7_4-py2_7_egg_django_contrib_sessions_serializers'
p2295
(dp2296
g29
(dp2297
g8
S'_home_deanna_django-deanna_lib_python2_7_site-packages_Django-1_7_4-py2_7_egg_django_contrib_sessions_serializers.html'
p2298
sg10
S'/home/deanna/django-deanna/lib/python2.7/site-packages/Django-1.7.4-py2.7.egg/django/contrib/sessions/serializers'
p2299
sg12
g13
(g14
g15
NtRp2300
(dp2301
g18
I1
sg19
I0
sg20
I11
sg21
I0
sg22
I0
sg23
I4
sg24
I0
sbssg35
S'\xd1\r\xe2\x0e_2\xa4;r\xa8z\x90a\xba\xc2\xb4'
p2302
ssS'_home_deanna_django-deanna_lib_python2_7_site-packages_Django-1_7_4-py2_7_egg_django_utils_numberformat'
p2303
(dp2304
g6
(dp2305
g8
S'_home_deanna_django-deanna_lib_python2_7_site-packages_Django-1_7_4-py2_7_egg_django_utils_numberformat.html'
p2306
sg10
S'/home/deanna/django-deanna/lib/python2.7/site-packages/Django-1.7.4-py2.7.egg/django/utils/numberformat'
p2307
sg12
g13
(g14
g15
NtRp2308
(dp2309
g18
I1
sg19
I0
sg20
I31
sg21
I0
sg22
I0
sg23
I22
sg24
I0
sbssg25
S'4)(\xd0\x08\xf9\xea \x8f\xe6\xc4r2\xe2\xdc\xf1'
p2310
ssS'_home_deanna_django-deanna_lib_python2_7_site-packages_Django-1_7_4-py2_7_egg_django_db___init__'
p2311
(dp2312
g6
(dp2313
g8
S'_home_deanna_django-deanna_lib_python2_7_site-packages_Django-1_7_4-py2_7_egg_django_db___init__.html'
p2314
sg10
S'/home/deanna/django-deanna/lib/python2.7/site-packages/Django-1.7.4-py2.7.egg/django/db/__init__'
p2315
sg12
g13
(g14
g15
NtRp2316
(dp2317
g18
I1
sg19
I0
sg20
I50
sg21
I0
sg22
I0
sg23
I20
sg24
I0
sbssg25
S'\xdcxq\xfaN\xb1\xd3\xffaa\xddu\x19\xc0\xa2\x9d'
p2318
ssS'_home_deanna_django-deanna_lib_python2_7_site-packages_Django-1_7_4-py2_7_egg_django_contrib_contenttypes___init__'
p2319
(dp2320
g6
(dp2321
g48
S'_home_deanna_django-deanna_lib_python2_7_site-packages_Django-1_7_4-py2_7_egg_django_contrib_contenttypes___init__.html'
p2322
sg50
S'/home/deanna/django-deanna/lib/python2.7/site-packages/Django-1.7.4-py2.7.egg/django/contrib/contenttypes/__init__'
p2323
sg52
g13
(g14
g15
NtRp2324
(dp2325
g18
I1
sg19
I0
sg20
I1
sg21
I0
sg22
I0
sg23
I0
sg24
I0
sbssg25
S'"#\xe0P\xa1Rc{e<\xf5\x9e\x04\x96"N'
p2326
ssS'_home_deanna_django-deanna_lib_python2_7_site-packages_Django-1_7_4-py2_7_egg_django_core_handlers_wsgi'
p2327
(dp2328
g6
(dp2329
g8
S'_home_deanna_django-deanna_lib_python2_7_site-packages_Django-1_7_4-py2_7_egg_django_core_handlers_wsgi.html'
p2330
sg10
S'/home/deanna/django-deanna/lib/python2.7/site-packages/Django-1.7.4-py2.7.egg/django/core/handlers/wsgi'
p2331
sg12
g13
(g14
g15
NtRp2332
(dp2333
g18
I1
sg19
I0
sg20
I160
sg21
I0
sg22
I0
sg23
I74
sg24
I0
sbssg25
S'eEl\xde\x0bvq4A6Fy\xbcU\xbd\x94'
p2334
ssS'_home_deanna_django-deanna_lib_python2_7_site-packages_Django-1_7_4-py2_7_egg_django_db_backends_sqlite3_client'
p2335
(dp2336
g6
(dp2337
g48
S'_home_deanna_django-deanna_lib_python2_7_site-packages_Django-1_7_4-py2_7_egg_django_db_backends_sqlite3_client.html'
p2338
sg50
S'/home/deanna/django-deanna/lib/python2.7/site-packages/Django-1.7.4-py2.7.egg/django/db/backends/sqlite3/client'
p2339
sg52
g13
(g14
g15
NtRp2340
(dp2341
g18
I1
sg19
I0
sg20
I10
sg21
I0
sg22
I0
sg23
I4
sg24
I0
sbssg25
S'\x15\x1e\xa2\xcdZ\x13\xadM\x83w5Bk@\xda\x1d'
p2342
ssS'_home_deanna_django-deanna_lib_python2_7_site-packages_Django-1_7_4-py2_7_egg_django_contrib_sessions_backends_db'
p2343
(dp2344
g6
(dp2345
g8
S'_home_deanna_django-deanna_lib_python2_7_site-packages_Django-1_7_4-py2_7_egg_django_contrib_sessions_backends_db.html'
p2346
sg10
S'/home/deanna/django-deanna/lib/python2.7/site-packages/Django-1.7.4-py2.7.egg/django/contrib/sessions/backends/db'
p2347
sg12
g13
(g14
g15
NtRp2348
(dp2349
g18
I1
sg19
I0
sg20
I53
sg21
I0
sg22
I0
sg23
I37
sg24
I0
sbssg25
S'Vi\xeb\xf3\xe31\xb1<=\xe1\xa0\xf8]\x06n+'
p2350
ssS'_home_deanna_django-deanna_lib_python2_7_site-packages_Django-1_7_4-py2_7_egg_django_contrib_contenttypes_admin'
p2351
(dp2352
g6
(dp2353
g48
S'_home_deanna_django-deanna_lib_python2_7_site-packages_Django-1_7_4-py2_7_egg_django_contrib_contenttypes_admin.html'
p2354
sg50
S'/home/deanna/django-deanna/lib/python2.7/site-packages/Django-1.7.4-py2.7.egg/django/contrib/contenttypes/admin'
p2355
sg52
g13
(g14
g15
NtRp2356
(dp2357
g18
I1
sg19
I0
sg20
I55
sg21
I0
sg22
I0
sg23
I32
sg24
I0
sbssg25
S'\x16-w"3\xd9R\x0f\xcd7aC\xc3\xf4\xb8R'
p2358
ssS'_home_deanna_django-deanna_lib_python2_7_site-packages_Django-1_7_4-py2_7_egg_django_utils_module_loading'
p2359
(dp2360
g6
(dp2361
g48
S'_home_deanna_django-deanna_lib_python2_7_site-packages_Django-1_7_4-py2_7_egg_django_utils_module_loading.html'
p2362
sg50
S'/home/deanna/django-deanna/lib/python2.7/site-packages/Django-1.7.4-py2.7.egg/django/utils/module_loading'
p2363
sg52
g13
(g14
g15
NtRp2364
(dp2365
g18
I1
sg19
I0
sg20
I89
sg21
I0
sg22
I0
sg23
I25
sg24
I0
sbssg25
S'\xc0\x99\x85\x13=z\xf2\x03Qn}\xc8\x1f\x93f\xbd'
p2366
ssS'_home_deanna_django-deanna_lib_python2_7_site-packages_Django-1_7_4-py2_7_egg_django_db_migrations___init__'
p2367
(dp2368
g6
(dp2369
g48
S'_home_deanna_django-deanna_lib_python2_7_site-packages_Django-1_7_4-py2_7_egg_django_db_migrations___init__.html'
p2370
sg50
S'/home/deanna/django-deanna/lib/python2.7/site-packages/Django-1.7.4-py2.7.egg/django/db/migrations/__init__'
p2371
sg52
g13
(g14
g15
NtRp2372
(dp2373
g18
I1
sg19
I0
sg20
I2
sg21
I0
sg22
I0
sg23
I0
sg24
I0
sbssg25
S'`j\xe71\xb5\xd6\x16\xd3Kw\xba^\x04:M\xf2'
p2374
ssS'_home_deanna_django-deanna_lib_python2_7_site-packages_Django-1_7_4-py2_7_egg_django_contrib_admin___init__'
p2375
(dp2376
g6
(dp2377
g48
S'_home_deanna_django-deanna_lib_python2_7_site-packages_Django-1_7_4-py2_7_egg_django_contrib_admin___init__.html'
p2378
sg50
S'/home/deanna/django-deanna/lib/python2.7/site-packages/Django-1.7.4-py2.7.egg/django/contrib/admin/__init__'
p2379
sg52
g13
(g14
g15
NtRp2380
(dp2381
g18
I1
sg19
I0
sg20
I10
sg21
I0
sg22
I0
sg23
I0
sg24
I0
sbssg25
S'\xf1o\x8f\xea\xe5lV\x88\x9eS|^\xa9\xa7c\x9d'
p2382
ssS'_home_deanna_django-deanna_lib_python2_7_site-packages_Django-1_7_4-py2_7_egg_django_contrib_sites_management'
p2383
(dp2384
g6
(dp2385
g48
S'_home_deanna_django-deanna_lib_python2_7_site-packages_Django-1_7_4-py2_7_egg_django_contrib_sites_management.html'
p2386
sg50
S'/home/deanna/django-deanna/lib/python2.7/site-packages/Django-1.7.4-py2.7.egg/django/contrib/sites/management'
p2387
sg52
g13
(g14
g15
NtRp2388
(dp2389
g18
I1
sg19
I0
sg20
I24
sg21
I0
sg22
I0
sg23
I9
sg24
I0
sbssg25
S'\xa8\xbca\xa2\xb3\tK&\x9f1\x18\xb0<\xd5\x8c '
p2390
ssS'_home_deanna_django-deanna_lib_python2_7_site-packages_Django-1_7_4-py2_7_egg_django_contrib_admin_sites'
p2391
(dp2392
g6
(dp2393
g8
S'_home_deanna_django-deanna_lib_python2_7_site-packages_Django-1_7_4-py2_7_egg_django_contrib_admin_sites.html'
p2394
sg10
S'/home/deanna/django-deanna/lib/python2.7/site-packages/Django-1.7.4-py2.7.egg/django/contrib/admin/sites'
p2395
sg12
g13
(g14
g15
NtRp2396
(dp2397
g18
I1
sg19
I0
sg20
I220
sg21
I0
sg22
I0
sg23
I125
sg24
I0
sbssg25
S'\xecebFMEsq4|\x8e\xf2R\xd8M<'
p2398
ssS'_home_deanna_django-deanna_lib_python2_7_site-packages_Django-1_7_4-py2_7_egg_django_db_models_fields_proxy'
p2399
(dp2400
g6
(dp2401
g48
S'_home_deanna_django-deanna_lib_python2_7_site-packages_Django-1_7_4-py2_7_egg_django_db_models_fields_proxy.html'
p2402
sg50
S'/home/deanna/django-deanna/lib/python2.7/site-packages/Django-1.7.4-py2.7.egg/django/db/models/fields/proxy'
p2403
sg52
g13
(g14
g15
NtRp2404
(dp2405
g18
I1
sg19
I0
sg20
I10
sg21
I0
sg22
I0
sg23
I6
sg24
I0
sbssg25
S'A\xd5\xd6O(Iu\xb8P\xd7\xdbG]z\xe2x'
p2406
ssS'_home_deanna_django-deanna_lib_python2_7_site-packages_Django-1_7_4-py2_7_egg_django_utils_regex_helper'
p2407
(dp2408
g6
(dp2409
g8
S'_home_deanna_django-deanna_lib_python2_7_site-packages_Django-1_7_4-py2_7_egg_django_utils_regex_helper.html'
p2410
sg10
S'/home/deanna/django-deanna/lib/python2.7/site-packages/Django-1.7.4-py2.7.egg/django/utils/regex_helper'
p2411
sg12
g13
(g14
g15
NtRp2412
(dp2413
g18
I1
sg19
I0
sg20
I188
sg21
I0
sg22
I0
sg23
I90
sg24
I0
sbssg25
S'\x9d\xed\x12\xb7\xa7\xben\x0fv\xcb\xed\xe7\x8b\xd9\xfdZ'
p2414
ssS'_home_deanna_django-deanna_lib_python2_7_site-packages_Django-1_7_4-py2_7_egg_django_core_context_processors'
p2415
(dp2416
g29
(dp2417
g8
S'_home_deanna_django-deanna_lib_python2_7_site-packages_Django-1_7_4-py2_7_egg_django_core_context_processors.html'
p2418
sg10
S'/home/deanna/django-deanna/lib/python2.7/site-packages/Django-1.7.4-py2.7.egg/django/core/context_processors'
p2419
sg12
g13
(g14
g15
NtRp2420
(dp2421
g18
I1
sg19
I0
sg20
I37
sg21
I0
sg22
I0
sg23
I18
sg24
I0
sbssg35
S'\x99n\x01Z\xf3\xf5\x8c\xd1\x9a.\xc9\xb8\xac\x94\t\xb3'
p2422
ssS'_home_deanna_django-deanna_lib_python2_7_site-packages_Django-1_7_4-py2_7_egg_django_utils_dateparse'
p2423
(dp2424
g6
(dp2425
g8
S'_home_deanna_django-deanna_lib_python2_7_site-packages_Django-1_7_4-py2_7_egg_django_utils_dateparse.html'
p2426
sg10
S'/home/deanna/django-deanna/lib/python2.7/site-packages/Django-1.7.4-py2.7.egg/django/utils/dateparse'
p2427
sg12
g13
(g14
g15
NtRp2428
(dp2429
g18
I1
sg19
I0
sg20
I38
sg21
I0
sg22
I0
sg23
I17
sg24
I0
sbssg25
S'\xcb\xb3\xdf\x94\xd8\x91^\xb3\x91\x8ab\xc4\xd3{\xc1\xfb'
p2430
ssS'_home_deanna_django-deanna_lib_python2_7_site-packages_Django-1_7_4-py2_7_egg_django_contrib_comments_views___init__'
p2431
(dp2432
g6
(dp2433
g48
S'_home_deanna_django-deanna_lib_python2_7_site-packages_Django-1_7_4-py2_7_egg_django_contrib_comments_views___init__.html'
p2434
sg50
S'/home/deanna/django-deanna/lib/python2.7/site-packages/Django-1.7.4-py2.7.egg/django/contrib/comments/views/__init__'
p2435
sg52
g13
(g14
g15
NtRp2436
(dp2437
g18
I1
sg19
I0
sg20
I0
sg21
I0
sg22
I0
sg23
I0
sg24
I0
sbssg25
S'\xca\xf5\x9f\x7f\x88\xdfa\x831|T\x1d\xbc}\xa5v'
p2438
ssS'_home_deanna_django-deanna_lib_python2_7_site-packages_Django-1_7_4-py2_7_egg_django_core_serializers_base'
p2439
(dp2440
g6
(dp2441
g48
S'_home_deanna_django-deanna_lib_python2_7_site-packages_Django-1_7_4-py2_7_egg_django_core_serializers_base.html'
p2442
sg50
S'/home/deanna/django-deanna/lib/python2.7/site-packages/Django-1.7.4-py2.7.egg/django/core/serializers/base'
p2443
sg52
g13
(g14
g15
NtRp2444
(dp2445
g18
I1
sg19
I0
sg20
I90
sg21
I0
sg22
I0
sg23
I33
sg24
I0
sbssg25
S'\x05:\xaa\x8f\xf4?\xa3P\x1d\x879H3\xf0\xc0\xe2'
p2446
ssS'_home_deanna_django-deanna_lib_python2_7_site-packages_Django-1_7_4-py2_7_egg_django_core_checks_messages'
p2447
(dp2448
g6
(dp2449
g48
S'_home_deanna_django-deanna_lib_python2_7_site-packages_Django-1_7_4-py2_7_egg_django_core_checks_messages.html'
p2450
sg50
S'/home/deanna/django-deanna/lib/python2.7/site-packages/Django-1.7.4-py2.7.egg/django/core/checks/messages'
p2451
sg52
g13
(g14
g15
NtRp2452
(dp2453
g18
I1
sg19
I0
sg20
I54
sg21
I0
sg22
I0
sg23
I28
sg24
I0
sbssg25
S'\x95\xad\x93\x81\x8ez[\x9c\x97\xa8\x12+!\xb9(K'
p2454
ssS'_home_deanna_django-deanna_lib_python2_7_site-packages_Django-1_7_4-py2_7_egg_django_contrib_auth_migrations___init__'
p2455
(dp2456
g6
(dp2457
g48
S'_home_deanna_django-deanna_lib_python2_7_site-packages_Django-1_7_4-py2_7_egg_django_contrib_auth_migrations___init__.html'
p2458
sg50
S'/home/deanna/django-deanna/lib/python2.7/site-packages/Django-1.7.4-py2.7.egg/django/contrib/auth/migrations/__init__'
p2459
sg52
g13
(g14
g15
NtRp2460
(dp2461
g18
I1
sg19
I0
sg20
I0
sg21
I0
sg22
I0
sg23
I0
sg24
I0
sbssg25
S'\xca\xf5\x9f\x7f\x88\xdfa\x831|T\x1d\xbc}\xa5v'
p2462
ssS'_home_deanna_django-deanna_lib_python2_7_site-packages_Django-1_7_4-py2_7_egg_django_http_multipartparser'
p2463
(dp2464
g6
(dp2465
g48
S'_home_deanna_django-deanna_lib_python2_7_site-packages_Django-1_7_4-py2_7_egg_django_http_multipartparser.html'
p2466
sg50
S'/home/deanna/django-deanna/lib/python2.7/site-packages/Django-1.7.4-py2.7.egg/django/http/multipartparser'
p2467
sg52
g13
(g14
g15
NtRp2468
(dp2469
g18
I1
sg19
I0
sg20
I351
sg21
I0
sg22
I0
sg23
I295
sg24
I0
sbssg25
S'\xde\x1c\xff1a8\x07.\xdd\xbc\xde\xecU\xc0\xf4\x80'
p2470
ssS'_home_deanna_django-deanna_lib_python2_7_site-packages_Django-1_7_4-py2_7_egg_django_http_utils'
p2471
(dp2472
g6
(dp2473
g8
S'_home_deanna_django-deanna_lib_python2_7_site-packages_Django-1_7_4-py2_7_egg_django_http_utils.html'
p2474
sg10
S'/home/deanna/django-deanna/lib/python2.7/site-packages/Django-1.7.4-py2.7.egg/django/http/utils'
p2475
sg12
g13
(g14
g15
NtRp2476
(dp2477
g18
I1
sg19
I0
sg20
I15
sg21
I0
sg22
I0
sg23
I8
sg24
I0
sbssg25
S'P\xb8\xbc\xa4b\xb88lJ\x7fP\xe8\xedME\xd1'
p2478
ssS'_home_deanna_django-deanna_lib_python2_7_site-packages_Django-1_7_4-py2_7_egg_django_forms_utils'
p2479
(dp2480
g6
(dp2481
g48
S'_home_deanna_django-deanna_lib_python2_7_site-packages_Django-1_7_4-py2_7_egg_django_forms_utils.html'
p2482
sg50
S'/home/deanna/django-deanna/lib/python2.7/site-packages/Django-1.7.4-py2.7.egg/django/forms/utils'
p2483
sg52
g13
(g14
g15
NtRp2484
(dp2485
g18
I1
sg19
I0
sg20
I90
sg21
I0
sg22
I0
sg23
I50
sg24
I0
sbssg25
S'`\xe2E\x8eW\x02\x88\x85\x88\xce\xe8\x91\x00\xa9\x1dh'
p2486
ssS'_home_deanna_django-deanna_lib_python2_7_site-packages_tastypie_models'
p2487
(dp2488
g6
(dp2489
g48
S'_home_deanna_django-deanna_lib_python2_7_site-packages_tastypie_models.html'
p2490
sg50
S'/home/deanna/django-deanna/lib/python2.7/site-packages/tastypie/models'
p2491
sg52
g13
(g14
g15
NtRp2492
(dp2493
g18
I1
sg19
I0
sg20
I44
sg21
I0
sg22
I0
sg23
I14
sg24
I0
sbssg25
S'KL\xdf\xf8[\x9d\xc6y\x82\xaa\x11\xba\x13]\x98\xec'
p2494
ssS'_home_deanna_django-deanna_lib_python2_7_site-packages_dateutil_relativedelta'
p2495
(dp2496
g6
(dp2497
g48
S'_home_deanna_django-deanna_lib_python2_7_site-packages_dateutil_relativedelta.html'
p2498
sg50
S'/home/deanna/django-deanna/lib/python2.7/site-packages/dateutil/relativedelta'
p2499
sg52
g13
(g14
g15
NtRp2500
(dp2501
g18
I1
sg19
I0
sg20
I222
sg21
I0
sg22
I0
sg23
I192
sg24
I0
sbssg25
S'\xa2K\x96\xb17F\\V\x82%^j\xa8v\xc0\x1c'
p2502
ssS'_home_deanna_django-deanna_lib_python2_7_site-packages_Django-1_7_4-py2_7_egg_django_contrib_auth_models'
p2503
(dp2504
g6
(dp2505
g48
S'_home_deanna_django-deanna_lib_python2_7_site-packages_Django-1_7_4-py2_7_egg_django_contrib_auth_models.html'
p2506
sg50
S'/home/deanna/django-deanna/lib/python2.7/site-packages/Django-1.7.4-py2.7.egg/django/contrib/auth/models'
p2507
sg52
g13
(g14
g15
NtRp2508
(dp2509
g18
I1
sg19
I0
sg20
I236
sg21
I0
sg22
I0
sg23
I99
sg24
I0
sbssg25
S'\xa2~\x11\xab\xd0c\x13\x89\x08\xeao\xb8\x86\xd7\x89\xe6'
p2510
ssS'_home_deanna_django-deanna_lib_python2_7_site-packages_Django-1_7_4-py2_7_egg_django_core_urlresolvers'
p2511
(dp2512
g6
(dp2513
g8
S'_home_deanna_django-deanna_lib_python2_7_site-packages_Django-1_7_4-py2_7_egg_django_core_urlresolvers.html'
p2514
sg10
S'/home/deanna/django-deanna/lib/python2.7/site-packages/Django-1.7.4-py2.7.egg/django/core/urlresolvers'
p2515
sg12
g13
(g14
g15
NtRp2516
(dp2517
g18
I1
sg19
I0
sg20
I379
sg21
I0
sg22
I0
sg23
I110
sg24
I0
sbssg25
S'\\1\xf4`\x97\x13\xa4\x99\xf9\xc4\x8a8\x83^\xd2\x18'
p2518
ssS'_home_deanna_django-deanna_lib_python2_7_site-packages_Django-1_7_4-py2_7_egg_django_db_models_constants'
p2519
(dp2520
g6
(dp2521
g48
S'_home_deanna_django-deanna_lib_python2_7_site-packages_Django-1_7_4-py2_7_egg_django_db_models_constants.html'
p2522
sg50
S'/home/deanna/django-deanna/lib/python2.7/site-packages/Django-1.7.4-py2.7.egg/django/db/models/constants'
p2523
sg52
g13
(g14
g15
NtRp2524
(dp2525
g18
I1
sg19
I0
sg20
I1
sg21
I0
sg22
I0
sg23
I0
sg24
I0
sbssg25
S'K\x0f@\x85\xa8\x06~v\xd55D;1,\x0f\x95'
p2526
ssS'_home_deanna_django-deanna_lib_python2_7_site-packages_Django-1_7_4-py2_7_egg_django_conf_locale_en_formats'
p2527
(dp2528
g29
(dp2529
g8
S'_home_deanna_django-deanna_lib_python2_7_site-packages_Django-1_7_4-py2_7_egg_django_conf_locale_en_formats.html'
p2530
sg10
S'/home/deanna/django-deanna/lib/python2.7/site-packages/Django-1.7.4-py2.7.egg/django/conf/locale/en/formats'
p2531
sg12
g13
(g14
g15
NtRp2532
(dp2533
g18
I1
sg19
I0
sg20
I14
sg21
I0
sg22
I0
sg23
I0
sg24
I0
sbssg35
S'":\x15\xfc\xde^\x1a\x9bh^\xbc\x1c\xdb\xe5B\xb2'
p2534
ssS'_home_deanna_django-deanna_lib_python2_7_site-packages_Django-1_7_4-py2_7_egg_django_core_signing'
p2535
(dp2536
g6
(dp2537
g48
S'_home_deanna_django-deanna_lib_python2_7_site-packages_Django-1_7_4-py2_7_egg_django_core_signing.html'
p2538
sg50
S'/home/deanna/django-deanna/lib/python2.7/site-packages/Django-1.7.4-py2.7.egg/django/core/signing'
p2539
sg52
g13
(g14
g15
NtRp2540
(dp2541
g18
I1
sg19
I0
sg20
I87
sg21
I0
sg22
I0
sg23
I55
sg24
I0
sbssg25
S'\xdc)w\xd8\xa7R\xf2\x88g7\xe7&"\r\xe9\xea'
p2542
ssS'_home_deanna_django-deanna_lib_python2_7_site-packages_Django-1_7_4-py2_7_egg_django_core_management_commands_flush'
p2543
(dp2544
g6
(dp2545
g48
S'_home_deanna_django-deanna_lib_python2_7_site-packages_Django-1_7_4-py2_7_egg_django_core_management_commands_flush.html'
p2546
sg50
S'/home/deanna/django-deanna/lib/python2.7/site-packages/Django-1.7.4-py2.7.egg/django/core/management/commands/flush'
p2547
sg52
g13
(g14
g15
NtRp2548
(dp2549
g18
I1
sg19
I0
sg20
I57
sg21
I0
sg22
I0
sg23
I10
sg24
I0
sbssg25
S'\xdb\x91\xf2\xb77\xd3\x16I\x18\xc5/t\xb1\xe4C$'
p2550
ssS'_home_deanna_django-deanna_lib_python2_7_site-packages_Django-1_7_4-py2_7_egg_django_contrib_auth_decorators'
p2551
(dp2552
g6
(dp2553
g48
S'_home_deanna_django-deanna_lib_python2_7_site-packages_Django-1_7_4-py2_7_egg_django_contrib_auth_decorators.html'
p2554
sg50
S'/home/deanna/django-deanna/lib/python2.7/site-packages/Django-1.7.4-py2.7.egg/django/contrib/auth/decorators'
p2555
sg52
g13
(g14
g15
NtRp2556
(dp2557
g18
I1
sg19
I0
sg20
I38
sg21
I0
sg22
I0
sg23
I19
sg24
I0
sbssg25
S'\xcfW\x88-\x01\x07\x80\xbe\xfc\x1d}[\xdb\x01\x13n'
p2558
ssS'_home_deanna_django-deanna_lib_python2_7_site-packages_Django-1_7_4-py2_7_egg_django_db_migrations_writer'
p2559
(dp2560
g6
(dp2561
g48
S'_home_deanna_django-deanna_lib_python2_7_site-packages_Django-1_7_4-py2_7_egg_django_db_migrations_writer.html'
p2562
sg50
S'/home/deanna/django-deanna/lib/python2.7/site-packages/Django-1.7.4-py2.7.egg/django/db/migrations/writer'
p2563
sg52
g13
(g14
g15
NtRp2564
(dp2565
g18
I1
sg19
I0
sg20
I273
sg21
I0
sg22
I0
sg23
I232
sg24
I0
sbssg25
S'\xe6"(\xb56\xba-Aj\x07\xbc=\xb3\\\x94\x9a'
p2566
ssS'_home_deanna_django-deanna_lib_python2_7_site-packages_Django-1_7_4-py2_7_egg_django_contrib_sites_migrations_0001_initial'
p2567
(dp2568
g6
(dp2569
g48
S'_home_deanna_django-deanna_lib_python2_7_site-packages_Django-1_7_4-py2_7_egg_django_contrib_sites_migrations_0001_initial.html'
p2570
sg50
S'/home/deanna/django-deanna/lib/python2.7/site-packages/Django-1.7.4-py2.7.egg/django/contrib/sites/migrations/0001_initial'
p2571
sg52
g13
(g14
g15
NtRp2572
(dp2573
g18
I1
sg19
I0
sg20
I6
sg21
I0
sg22
I0
sg23
I0
sg24
I0
sbssg25
S'\x9bRvz\x95\\Bz\xdd\xdf\xa4\xd9\x90B\xf3\xcb'
p2574
ssS'_home_deanna_django-deanna_lib_python2_7_site-packages_Django-1_7_4-py2_7_egg_django_contrib_auth_tokens'
p2575
(dp2576
g6
(dp2577
g48
S'_home_deanna_django-deanna_lib_python2_7_site-packages_Django-1_7_4-py2_7_egg_django_contrib_auth_tokens.html'
p2578
sg50
S'/home/deanna/django-deanna/lib/python2.7/site-packages/Django-1.7.4-py2.7.egg/django/contrib/auth/tokens'
p2579
sg52
g13
(g14
g15
NtRp2580
(dp2581
g18
I1
sg19
I0
sg20
I34
sg21
I0
sg22
I0
sg23
I22
sg24
I0
sbssg25
S'\x835\x03\xf2\xc5\xc6\x97\x80%R\x92dm\xef\xba\xa5'
p2582
ssS'_home_deanna_django-deanna_lib_python2_7_site-packages_dateutil_parser'
p2583
(dp2584
g6
(dp2585
g48
S'_home_deanna_django-deanna_lib_python2_7_site-packages_dateutil_parser.html'
p2586
sg50
S'/home/deanna/django-deanna/lib/python2.7/site-packages/dateutil/parser'
p2587
sg52
g13
(g14
g15
NtRp2588
(dp2589
g18
I1
sg19
I0
sg20
I635
sg21
I0
sg22
I0
sg23
I552
sg24
I0
sbssg25
S'8K\x18}\xa1\xa0k;k\x07\xd1,w\x83\x199'
p2590
ssS'_home_deanna_django-deanna_lib_python2_7_site-packages_Django-1_7_4-py2_7_egg_django_db_models_sql_expressions'
p2591
(dp2592
g6
(dp2593
g48
S'_home_deanna_django-deanna_lib_python2_7_site-packages_Django-1_7_4-py2_7_egg_django_db_models_sql_expressions.html'
p2594
sg50
S'/home/deanna/django-deanna/lib/python2.7/site-packages/Django-1.7.4-py2.7.egg/django/db/models/sql/expressions'
p2595
sg52
g13
(g14
g15
NtRp2596
(dp2597
g18
I1
sg19
I0
sg20
I83
sg21
I0
sg22
I0
sg23
I68
sg24
I0
sbssg25
S' \xd3\x01\x8a\x81\xb16\xf9\xca1-\xa9\x10FV\x8f'
p2598
ssS'article_migrations_0001_initial'
p2599
(dp2600
g6
(dp2601
g48
S'article_migrations_0001_initial.html'
p2602
sg50
S'article/migrations/0001_initial'
p2603
sg52
g13
(g14
g15
NtRp2604
(dp2605
g18
I1
sg19
I0
sg20
I5
sg21
I0
sg22
I0
sg23
I0
sg24
I0
sbssg25
S'(\x82\xf7~\xe6\xff6j\xb9:,!\xc0u\xdeN'
p2606
ssS'_home_deanna_django-deanna_lib_python2_7_site-packages_Django-1_7_4-py2_7_egg_django_db_migrations_optimizer'
p2607
(dp2608
g6
(dp2609
g48
S'_home_deanna_django-deanna_lib_python2_7_site-packages_Django-1_7_4-py2_7_egg_django_db_migrations_optimizer.html'
p2610
sg50
S'/home/deanna/django-deanna/lib/python2.7/site-packages/Django-1.7.4-py2.7.egg/django/db/migrations/optimizer'
p2611
sg52
g13
(g14
g15
NtRp2612
(dp2613
g18
I1
sg19
I0
sg20
I98
sg21
I0
sg22
I0
sg23
I75
sg24
I0
sbssg25
S'^<\x94>.r\xbc\xd8"\xa6#\x92\xe6_|D'
p2614
ssS'_home_deanna_django-deanna_lib_python2_7_site-packages_Django-1_7_4-py2_7_egg_django_db_models___init__'
p2615
(dp2616
g6
(dp2617
g48
S'_home_deanna_django-deanna_lib_python2_7_site-packages_Django-1_7_4-py2_7_egg_django_db_models___init__.html'
p2618
sg50
S'/home/deanna/django-deanna/lib/python2.7/site-packages/Django-1.7.4-py2.7.egg/django/db/models/__init__'
p2619
sg52
g13
(g14
g15
NtRp2620
(dp2621
g18
I1
sg19
I0
sg20
I35
sg21
I0
sg22
I0
sg23
I8
sg24
I0
sbssg25
S'\xea}(\x15$\x94\xbc\xb6\xa3tk (\xbbm\x9e'
p2622
ssS'_home_deanna_django-deanna_lib_python2_7_site-packages_Django-1_7_4-py2_7_egg_django_core_checks_compatibility_django_1_6_0'
p2623
(dp2624
g6
(dp2625
g48
S'_home_deanna_django-deanna_lib_python2_7_site-packages_Django-1_7_4-py2_7_egg_django_core_checks_compatibility_django_1_6_0.html'
p2626
sg50
S'/home/deanna/django-deanna/lib/python2.7/site-packages/Django-1.7.4-py2.7.egg/django/core/checks/compatibility/django_1_6_0'
p2627
sg52
g13
(g14
g15
NtRp2628
(dp2629
g18
I1
sg19
I0
sg20
I36
sg21
I0
sg22
I0
sg23
I8
sg24
I0
sbssg25
S'\x15\xab{\xe5\x93G\xb4\xa3\xe4\xf7\xe6m\xef\x8fF\xce'
p2630
ssS'_home_deanna_django-deanna_lib_python2_7_site-packages_Django-1_7_4-py2_7_egg_django_template_context'
p2631
(dp2632
g6
(dp2633
g8
S'_home_deanna_django-deanna_lib_python2_7_site-packages_Django-1_7_4-py2_7_egg_django_template_context.html'
p2634
sg10
S'/home/deanna/django-deanna/lib/python2.7/site-packages/Django-1.7.4-py2.7.egg/django/template/context'
p2635
sg12
g13
(g14
g15
NtRp2636
(dp2637
g18
I1
sg19
I0
sg20
I121
sg21
I0
sg22
I0
sg23
I43
sg24
I0
sbssg25
S';\x02/\x08;M\xba`\x8c*\x82\xcc\xe5\xfe:Y'
p2638
ssS'_home_deanna_django-deanna_lib_python2_7_site-packages_Django-1_7_4-py2_7_egg_django_contrib_auth___init__'
p2639
(dp2640
g6
(dp2641
g48
S'_home_deanna_django-deanna_lib_python2_7_site-packages_Django-1_7_4-py2_7_egg_django_contrib_auth___init__.html'
p2642
sg50
S'/home/deanna/django-deanna/lib/python2.7/site-packages/Django-1.7.4-py2.7.egg/django/contrib/auth/__init__'
p2643
sg52
g13
(g14
g15
NtRp2644
(dp2645
g18
I1
sg19
I0
sg20
I105
sg21
I0
sg22
I0
sg23
I79
sg24
I0
sbssg25
S'\xecs\xf2\x1dX(PT\xcf\x7fR\x91\xec\xdb\xc3|'
p2646
ssS'_home_deanna_django-deanna_lib_python2_7_site-packages_Django-1_7_4-py2_7_egg_django_views_decorators_cache'
p2647
(dp2648
g6
(dp2649
g48
S'_home_deanna_django-deanna_lib_python2_7_site-packages_Django-1_7_4-py2_7_egg_django_views_decorators_cache.html'
p2650
sg50
S'/home/deanna/django-deanna/lib/python2.7/site-packages/Django-1.7.4-py2.7.egg/django/views/decorators/cache'
p2651
sg52
g13
(g14
g15
NtRp2652
(dp2653
g18
I1
sg19
I0
sg20
I27
sg21
I0
sg22
I0
sg23
I18
sg24
I0
sbssg25
S'\x0f\xeb*^\xc3\xf7I\xc49Y\xaed\xdf9\xac0'
p2654
ssS'_home_deanna_django-deanna_lib_python2_7_site-packages_Django-1_7_4-py2_7_egg_django_contrib_contenttypes_migrations___init__'
p2655
(dp2656
g6
(dp2657
g48
S'_home_deanna_django-deanna_lib_python2_7_site-packages_Django-1_7_4-py2_7_egg_django_contrib_contenttypes_migrations___init__.html'
p2658
sg50
S'/home/deanna/django-deanna/lib/python2.7/site-packages/Django-1.7.4-py2.7.egg/django/contrib/contenttypes/migrations/__init__'
p2659
sg52
g13
(g14
g15
NtRp2660
(dp2661
g18
I1
sg19
I0
sg20
I0
sg21
I0
sg22
I0
sg23
I0
sg24
I0
sbssg25
S'\xca\xf5\x9f\x7f\x88\xdfa\x831|T\x1d\xbc}\xa5v'
p2662
ssS'_home_deanna_django-deanna_lib_python2_7_site-packages_Django-1_7_4-py2_7_egg_django_contrib_contenttypes_fields'
p2663
(dp2664
g6
(dp2665
g48
S'_home_deanna_django-deanna_lib_python2_7_site-packages_Django-1_7_4-py2_7_egg_django_contrib_contenttypes_fields.html'
p2666
sg50
S'/home/deanna/django-deanna/lib/python2.7/site-packages/Django-1.7.4-py2.7.egg/django/contrib/contenttypes/fields'
p2667
sg52
g13
(g14
g15
NtRp2668
(dp2669
g18
I1
sg19
I0
sg20
I292
sg21
I0
sg22
I0
sg23
I212
sg24
I0
sbssg25
S'\xdc\xf1\x90\xd0C\x94e\x87\xc4c\x16\x17\t7Xj'
p2670
ssS'_home_deanna_django-deanna_lib_python2_7_site-packages_Django-1_7_4-py2_7_egg_django_core_signals'
p2671
(dp2672
g6
(dp2673
g48
S'_home_deanna_django-deanna_lib_python2_7_site-packages_Django-1_7_4-py2_7_egg_django_core_signals.html'
p2674
sg50
S'/home/deanna/django-deanna/lib/python2.7/site-packages/Django-1.7.4-py2.7.egg/django/core/signals'
p2675
sg52
g13
(g14
g15
NtRp2676
(dp2677
g18
I1
sg19
I0
sg20
I4
sg21
I0
sg22
I0
sg23
I0
sg24
I0
sbssg25
S'\x11)\xaf\xa7<%!O_\xa5\xae\x81Dl\xa7C'
p2678
ssS'django_test_forms'
p2679
(dp2680
g29
(dp2681
g8
S'django_test_forms.html'
p2682
sg10
S'django_test/forms'
p2683
sg12
g13
(g14
g15
NtRp2684
(dp2685
g18
I1
sg19
I0
sg20
I14
sg21
I0
sg22
I0
sg23
I5
sg24
I0
sbssg35
S'\x8e\xff\xe7k\xc9/\x16$\xefP\xae\xe7\x1b\t\x018'
p2686
ssS'_home_deanna_django-deanna_lib_python2_7_site-packages_Django-1_7_4-py2_7_egg_django_core___init__'
p2687
(dp2688
g6
(dp2689
g48
S'_home_deanna_django-deanna_lib_python2_7_site-packages_Django-1_7_4-py2_7_egg_django_core___init__.html'
p2690
sg50
S'/home/deanna/django-deanna/lib/python2.7/site-packages/Django-1.7.4-py2.7.egg/django/core/__init__'
p2691
sg52
g13
(g14
g15
NtRp2692
(dp2693
g18
I1
sg19
I0
sg20
I0
sg21
I0
sg22
I0
sg23
I0
sg24
I0
sbssg25
S'\xca\xf5\x9f\x7f\x88\xdfa\x831|T\x1d\xbc}\xa5v'
p2694
ssS'_home_deanna_django-deanna_lib_python2_7_site-packages_tastypie_constants'
p2695
(dp2696
g29
(dp2697
g8
S'_home_deanna_django-deanna_lib_python2_7_site-packages_tastypie_constants.html'
p2698
sg10
S'/home/deanna/django-deanna/lib/python2.7/site-packages/tastypie/constants'
p2699
sg12
g13
(g14
g15
NtRp2700
(dp2701
g18
I1
sg19
I0
sg20
I3
sg21
I0
sg22
I0
sg23
I0
sg24
I0
sbssg35
S'<\xed\xe0bB\x17\x8d*=\x02\xb0\xedx\xbe\x88\x1a'
p2702
ssS'_home_deanna_django-deanna_lib_python2_7_site-packages_tastypie_paginator'
p2703
(dp2704
g29
(dp2705
g8
S'_home_deanna_django-deanna_lib_python2_7_site-packages_tastypie_paginator.html'
p2706
sg10
S'/home/deanna/django-deanna/lib/python2.7/site-packages/tastypie/paginator'
p2707
sg12
g13
(g14
g15
NtRp2708
(dp2709
g18
I1
sg19
I0
sg20
I92
sg21
I0
sg22
I0
sg23
I74
sg24
I0
sbssg35
S'N\xa1y;\x17;v\xf1m\xfcp\xf2\xa7,\x176'
p2710
ssS'_home_deanna_django-deanna_lib_python2_7_site-packages_Django-1_7_4-py2_7_egg_django_db_migrations_operations_models'
p2711
(dp2712
g6
(dp2713
g48
S'_home_deanna_django-deanna_lib_python2_7_site-packages_Django-1_7_4-py2_7_egg_django_db_migrations_operations_models.html'
p2714
sg50
S'/home/deanna/django-deanna/lib/python2.7/site-packages/Django-1.7.4-py2.7.egg/django/db/migrations/operations/models'
p2715
sg52
g13
(g14
g15
NtRp2716
(dp2717
g18
I1
sg19
I0
sg20
I227
sg21
I0
sg22
I0
sg23
I140
sg24
I0
sbssg25
S'~xezC\xc8|\xa5\xb0\xf7\xde>K\xf0V$'
p2718
ssS'_home_deanna_django-deanna_lib_python2_7_site-packages_Django-1_7_4-py2_7_egg_django_apps_registry'
p2719
(dp2720
g6
(dp2721
g48
S'_home_deanna_django-deanna_lib_python2_7_site-packages_Django-1_7_4-py2_7_egg_django_apps_registry.html'
p2722
sg50
S'/home/deanna/django-deanna/lib/python2.7/site-packages/Django-1.7.4-py2.7.egg/django/apps/registry'
p2723
sg52
g13
(g14
g15
NtRp2724
(dp2725
g18
I1
sg19
I0
sg20
I183
sg21
I0
sg22
I0
sg23
I77
sg24
I0
sbssg25
S'\xe9y\x15\x86\xfb\x10\xe4\x90\xcf\x1a\xde\xf7\xb5\xf8\xa3\x8d'
p2726
ssS'_home_deanna_django-deanna_lib_python2_7_site-packages_Django-1_7_4-py2_7_egg_django_test_runner'
p2727
(dp2728
g6
(dp2729
g48
S'_home_deanna_django-deanna_lib_python2_7_site-packages_Django-1_7_4-py2_7_egg_django_test_runner.html'
p2730
sg50
S'/home/deanna/django-deanna/lib/python2.7/site-packages/Django-1.7.4-py2.7.egg/django/test/runner'
p2731
sg52
g13
(g14
g15
NtRp2732
(dp2733
g18
I1
sg19
I0
sg20
I163
sg21
I0
sg22
I0
sg23
I18
sg24
I0
sbssg25
S'z\xcf\xc1\xf6\xe0\\Y\x94NH\x02\xc1_\x08\xbf\xf9'
p2734
ssS'_home_deanna_django-deanna_lib_python2_7_site-packages_Django-1_7_4-py2_7_egg_django_core_cache_backends___init__'
p2735
(dp2736
g6
(dp2737
g48
S'_home_deanna_django-deanna_lib_python2_7_site-packages_Django-1_7_4-py2_7_egg_django_core_cache_backends___init__.html'
p2738
sg50
S'/home/deanna/django-deanna/lib/python2.7/site-packages/Django-1.7.4-py2.7.egg/django/core/cache/backends/__init__'
p2739
sg52
g13
(g14
g15
NtRp2740
(dp2741
g18
I1
sg19
I0
sg20
I0
sg21
I0
sg22
I0
sg23
I0
sg24
I0
sbssg25
S'\xca\xf5\x9f\x7f\x88\xdfa\x831|T\x1d\xbc}\xa5v'
p2742
ssS'_home_deanna_django-deanna_lib_python2_7_site-packages_Django-1_7_4-py2_7_egg_django_db_backends_sqlite3_base'
p2743
(dp2744
g6
(dp2745
g8
S'_home_deanna_django-deanna_lib_python2_7_site-packages_Django-1_7_4-py2_7_egg_django_db_backends_sqlite3_base.html'
p2746
sg10
S'/home/deanna/django-deanna/lib/python2.7/site-packages/Django-1.7.4-py2.7.egg/django/db/backends/sqlite3/base'
p2747
sg12
g13
(g14
g15
NtRp2748
(dp2749
g18
I1
sg19
I0
sg20
I322
sg21
I0
sg22
I0
sg23
I139
sg24
I0
sbssg25
S'\xd9J#\x02\x9c!\x8b\x19\xa0\x91\xb4\xc9*\x1dn1'
p2750
ssS'_home_deanna_django-deanna_lib_python2_7_site-packages_Django-1_7_4-py2_7_egg_django_contrib_sessions_backends___init__'
p2751
(dp2752
g6
(dp2753
g48
S'_home_deanna_django-deanna_lib_python2_7_site-packages_Django-1_7_4-py2_7_egg_django_contrib_sessions_backends___init__.html'
p2754
sg50
S'/home/deanna/django-deanna/lib/python2.7/site-packages/Django-1.7.4-py2.7.egg/django/contrib/sessions/backends/__init__'
p2755
sg52
g13
(g14
g15
NtRp2756
(dp2757
g18
I1
sg19
I0
sg20
I0
sg21
I0
sg22
I0
sg23
I0
sg24
I0
sbssg25
S'\xca\xf5\x9f\x7f\x88\xdfa\x831|T\x1d\xbc}\xa5v'
p2758
ssS'_home_deanna_django-deanna_lib_python2_7_site-packages_defusedxml_common'
p2759
(dp2760
g29
(dp2761
g8
S'_home_deanna_django-deanna_lib_python2_7_site-packages_defusedxml_common.html'
p2762
sg10
S'/home/deanna/django-deanna/lib/python2.7/site-packages/defusedxml/common'
p2763
sg12
g13
(g14
g15
NtRp2764
(dp2765
g18
I1
sg19
I0
sg20
I94
sg21
I0
sg22
I0
sg23
I74
sg24
I0
sbssg35
S':\xb0\x96h\x19J\xf6|\x01Xj\x9e\xca\x0e33'
p2766
ssS'_home_deanna_django-deanna_lib_python2_7_site-packages_Django-1_7_4-py2_7_egg_django_db_migrations_operations_special'
p2767
(dp2768
g6
(dp2769
g48
S'_home_deanna_django-deanna_lib_python2_7_site-packages_Django-1_7_4-py2_7_egg_django_db_migrations_operations_special.html'
p2770
sg50
S'/home/deanna/django-deanna/lib/python2.7/site-packages/Django-1.7.4-py2.7.egg/django/db/migrations/operations/special'
p2771
sg52
g13
(g14
g15
NtRp2772
(dp2773
g18
I1
sg19
I0
sg20
I72
sg21
I0
sg22
I0
sg23
I49
sg24
I0
sbssg25
S'\xf3J\xc3\xa9\xd9\xc2d\xbdCK\xef\xcen9g8'
p2774
ssS'_home_deanna_django-deanna_lib_python2_7_site-packages_Django-1_7_4-py2_7_egg_django_template_loader_tags'
p2775
(dp2776
g6
(dp2777
g8
S'_home_deanna_django-deanna_lib_python2_7_site-packages_Django-1_7_4-py2_7_egg_django_template_loader_tags.html'
p2778
sg10
S'/home/deanna/django-deanna/lib/python2.7/site-packages/Django-1.7.4-py2.7.egg/django/template/loader_tags'
p2779
sg12
g13
(g14
g15
NtRp2780
(dp2781
g18
I1
sg19
I0
sg20
I153
sg21
I0
sg22
I0
sg23
I62
sg24
I0
sbssg25
S'\x90\x9d\xcb\x7f\xd5M \x18{.\x93/W\x80\xbc\x8f'
p2782
ssS'_home_deanna_django-deanna_lib_python2_7_site-packages_Django-1_7_4-py2_7_egg_django_db_models_sql_datastructures'
p2783
(dp2784
g6
(dp2785
g48
S'_home_deanna_django-deanna_lib_python2_7_site-packages_Django-1_7_4-py2_7_egg_django_db_models_sql_datastructures.html'
p2786
sg50
S'/home/deanna/django-deanna/lib/python2.7/site-packages/Django-1.7.4-py2.7.egg/django/db/models/sql/datastructures'
p2787
sg52
g13
(g14
g15
NtRp2788
(dp2789
g18
I1
sg19
I0
sg20
I48
sg21
I0
sg22
I0
sg23
I21
sg24
I0
sbssg25
S"K\x1fq\x8al\xafs\x9a\xf3|\xc9\xd2\x88'WZ"
p2790
ssS'_home_deanna_django-deanna_lib_python2_7_site-packages_Django-1_7_4-py2_7_egg_django_contrib___init__'
p2791
(dp2792
g6
(dp2793
g48
S'_home_deanna_django-deanna_lib_python2_7_site-packages_Django-1_7_4-py2_7_egg_django_contrib___init__.html'
p2794
sg50
S'/home/deanna/django-deanna/lib/python2.7/site-packages/Django-1.7.4-py2.7.egg/django/contrib/__init__'
p2795
sg52
g13
(g14
g15
NtRp2796
(dp2797
g18
I1
sg19
I0
sg20
I0
sg21
I0
sg22
I0
sg23
I0
sg24
I0
sbssg25
S'\xca\xf5\x9f\x7f\x88\xdfa\x831|T\x1d\xbc}\xa5v'
p2798
ssS'_home_deanna_django-deanna_lib_python2_7_site-packages_dateutil___init__'
p2799
(dp2800
g6
(dp2801
g48
S'_home_deanna_django-deanna_lib_python2_7_site-packages_dateutil___init__.html'
p2802
sg50
S'/home/deanna/django-deanna/lib/python2.7/site-packages/dateutil/__init__'
p2803
sg52
g13
(g14
g15
NtRp2804
(dp2805
g18
I1
sg19
I0
sg20
I1
sg21
I0
sg22
I0
sg23
I0
sg24
I0
sbssg25
S'\xc1{c\xecQ\xdeAn\xa5\x10p\x05\xb3{\xca\x0e'
p2806
ssS'_home_deanna_django-deanna_lib_python2_7_site-packages_Django-1_7_4-py2_7_egg_django_db_backends_sqlite3_introspection'
p2807
(dp2808
g6
(dp2809
g48
S'_home_deanna_django-deanna_lib_python2_7_site-packages_Django-1_7_4-py2_7_egg_django_db_backends_sqlite3_introspection.html'
p2810
sg50
S'/home/deanna/django-deanna/lib/python2.7/site-packages/Django-1.7.4-py2.7.egg/django/db/backends/sqlite3/introspection'
p2811
sg52
g13
(g14
g15
NtRp2812
(dp2813
g18
I1
sg19
I0
sg20
I111
sg21
I0
sg22
I0
sg23
I92
sg24
I0
sbssg25
S'\xfa\xe0\x15\xab-\xfe\x8f\xd77\xb0i\xe0@:\x97\xae'
p2814
ssS'_home_deanna_django-deanna_lib_python2_7_site-packages_Django-1_7_4-py2_7_egg_django_contrib_auth_management___init__'
p2815
(dp2816
g6
(dp2817
g48
S'_home_deanna_django-deanna_lib_python2_7_site-packages_Django-1_7_4-py2_7_egg_django_contrib_auth_management___init__.html'
p2818
sg50
S'/home/deanna/django-deanna/lib/python2.7/site-packages/Django-1.7.4-py2.7.egg/django/contrib/auth/management/__init__'
p2819
sg52
g13
(g14
g15
NtRp2820
(dp2821
g18
I1
sg19
I0
sg20
I92
sg21
I0
sg22
I0
sg23
I38
sg24
I0
sbssg25
S'>\xe4\xebo\x8aH\xd6\xbb"U\x18\xc0\xc5\x82j6'
p2822
ssS'_home_deanna_django-deanna_lib_python2_7_site-packages_Django-1_7_4-py2_7_egg_django_template_defaultfilters'
p2823
(dp2824
g6
(dp2825
g8
S'_home_deanna_django-deanna_lib_python2_7_site-packages_Django-1_7_4-py2_7_egg_django_template_defaultfilters.html'
p2826
sg10
S'/home/deanna/django-deanna/lib/python2.7/site-packages/Django-1.7.4-py2.7.egg/django/template/defaultfilters'
p2827
sg12
g13
(g14
g15
NtRp2828
(dp2829
g18
I1
sg19
I0
sg20
I459
sg21
I0
sg22
I0
sg23
I318
sg24
I0
sbssg25
S'\x03\x06\x01\xf8\xadx\x19\xf4\xa9\xca\x89\xd8\xf6\x90\xaf\x9a'
p2830
ssS'_home_deanna_django-deanna_lib_python2_7_site-packages_Django-1_7_4-py2_7_egg_django_views_static'
p2831
(dp2832
g6
(dp2833
g48
S'_home_deanna_django-deanna_lib_python2_7_site-packages_Django-1_7_4-py2_7_egg_django_views_static.html'
p2834
sg50
S'/home/deanna/django-deanna/lib/python2.7/site-packages/Django-1.7.4-py2.7.egg/django/views/static'
p2835
sg52
g13
(g14
g15
NtRp2836
(dp2837
g18
I1
sg19
I0
sg20
I73
sg21
I0
sg22
I0
sg23
I57
sg24
I0
sbssg25
S'L\xfaZ\x1f\xb9\x07\xc5\xec\xe9\r\xf1\x0b\x81\xb5\xd8q'
p2838
ssS'_home_deanna_django-deanna_lib_python2_7_site-packages_Django-1_7_4-py2_7_egg_django_template_loaders_cached'
p2839
(dp2840
g6
(dp2841
g48
S'_home_deanna_django-deanna_lib_python2_7_site-packages_Django-1_7_4-py2_7_egg_django_template_loaders_cached.html'
p2842
sg50
S'/home/deanna/django-deanna/lib/python2.7/site-packages/Django-1.7.4-py2.7.egg/django/template/loaders/cached'
p2843
sg52
g13
(g14
g15
NtRp2844
(dp2845
g18
I1
sg19
I0
sg20
I57
sg21
I0
sg22
I0
sg23
I45
sg24
I0
sbssg25
S'\xb6\xeb\xd6G\xbc\xd5\xc2\x19\x9f\xca\xaa\xd9M\x12\xc5\x1e'
p2846
ssS'_home_deanna_django-deanna_lib_python2_7_site-packages_Django-1_7_4-py2_7_egg_django_core_management_base'
p2847
(dp2848
g6
(dp2849
g48
S'_home_deanna_django-deanna_lib_python2_7_site-packages_Django-1_7_4-py2_7_egg_django_core_management_base.html'
p2850
sg50
S'/home/deanna/django-deanna/lib/python2.7/site-packages/Django-1.7.4-py2.7.egg/django/core/management/base'
p2851
sg52
g13
(g14
g15
NtRp2852
(dp2853
g18
I1
sg19
I0
sg20
I187
sg21
I0
sg22
I0
sg23
I83
sg24
I0
sbssg25
S'\xccx\xe4\x87\xa28\x95\x00\x11S\x07\x14\xdc_ \x04'
p2854
ssS'_home_deanna_django-deanna_lib_python2_7_site-packages_tastypie_utils_dict'
p2855
(dp2856
g6
(dp2857
g48
S'_home_deanna_django-deanna_lib_python2_7_site-packages_tastypie_utils_dict.html'
p2858
sg50
S'/home/deanna/django-deanna/lib/python2.7/site-packages/tastypie/utils/dict'
p2859
sg52
g13
(g14
g15
NtRp2860
(dp2861
g18
I1
sg19
I0
sg20
I9
sg21
I0
sg22
I0
sg23
I6
sg24
I0
sbssg25
S'!\xd7x\xf0\x9bxJ\x9b\x0ea\xbe\x19\xbc\xa6P#'
p2862
ssS'_home_deanna_django-deanna_lib_python2_7_site-packages_Django-1_7_4-py2_7_egg_django_contrib_messages_constants'
p2863
(dp2864
g6
(dp2865
g48
S'_home_deanna_django-deanna_lib_python2_7_site-packages_Django-1_7_4-py2_7_egg_django_contrib_messages_constants.html'
p2866
sg50
S'/home/deanna/django-deanna/lib/python2.7/site-packages/Django-1.7.4-py2.7.egg/django/contrib/messages/constants'
p2867
sg52
g13
(g14
g15
NtRp2868
(dp2869
g18
I1
sg19
I0
sg20
I7
sg21
I0
sg22
I0
sg23
I0
sg24
I0
sbssg25
S'\xc7\x16o\xf2\xe8\xb4L\xe1\xe4[\xa2r\x0bS;\xed'
p2870
ssS'_home_deanna_django-deanna_lib_python2_7_site-packages_Django-1_7_4-py2_7_egg_django_contrib_admin_apps'
p2871
(dp2872
g6
(dp2873
g48
S'_home_deanna_django-deanna_lib_python2_7_site-packages_Django-1_7_4-py2_7_egg_django_contrib_admin_apps.html'
p2874
sg50
S'/home/deanna/django-deanna/lib/python2.7/site-packages/Django-1.7.4-py2.7.egg/django/contrib/admin/apps'
p2875
sg52
g13
(g14
g15
NtRp2876
(dp2877
g18
I1
sg19
I0
sg20
I13
sg21
I0
sg22
I0
sg23
I0
sg24
I0
sbssg25
S'\x07\x9e\x9c\x1an1\xd6jl\x9cwTz\x19/\xf2'
p2878
ssS'_home_deanna_django-deanna_lib_python2_7_site-packages_Django-1_7_4-py2_7_egg_django_contrib_auth_forms'
p2879
(dp2880
g6
(dp2881
g48
S'_home_deanna_django-deanna_lib_python2_7_site-packages_Django-1_7_4-py2_7_egg_django_contrib_auth_forms.html'
p2882
sg50
S'/home/deanna/django-deanna/lib/python2.7/site-packages/Django-1.7.4-py2.7.egg/django/contrib/auth/forms'
p2883
sg52
g13
(g14
g15
NtRp2884
(dp2885
g18
I1
sg19
I0
sg20
I189
sg21
I0
sg22
I0
sg23
I110
sg24
I0
sbssg25
S'\xfc\xb9s\x8b\x86\xce\xbd\x07\x0e\x86\xf5?\xc8\xdc\xc2\xdf'
p2886
ssS'_home_deanna_django-deanna_lib_python2_7_site-packages_tastypie_utils___init__'
p2887
(dp2888
g6
(dp2889
g48
S'_home_deanna_django-deanna_lib_python2_7_site-packages_tastypie_utils___init__.html'
p2890
sg50
S'/home/deanna/django-deanna/lib/python2.7/site-packages/tastypie/utils/__init__'
p2891
sg52
g13
(g14
g15
NtRp2892
(dp2893
g18
I1
sg19
I0
sg20
I5
sg21
I0
sg22
I0
sg23
I0
sg24
I0
sbssg25
S'\xfd\x15~^\xa45\xd9&\x14\xbc\xc3p\xf2K2\xf8'
p2894
ssS'_home_deanna_django-deanna_lib_python2_7_site-packages_Django-1_7_4-py2_7_egg_django_utils_translation_trans_real'
p2895
(dp2896
g6
(dp2897
g8
S'_home_deanna_django-deanna_lib_python2_7_site-packages_Django-1_7_4-py2_7_egg_django_utils_translation_trans_real.html'
p2898
sg10
S'/home/deanna/django-deanna/lib/python2.7/site-packages/Django-1.7.4-py2.7.egg/django/utils/translation/trans_real'
p2899
sg12
g13
(g14
g15
NtRp2900
(dp2901
g18
I1
sg19
I0
sg20
I432
sg21
I0
sg22
I0
sg23
I281
sg24
I0
sbssg25
S"\xf6\x1c\xeak>\x87'\xa62G!6j,Q\xd5"
p2902
ssS'_home_deanna_django-deanna_lib_python2_7_site-packages_Django-1_7_4-py2_7_egg_django_contrib_auth_apps'
p2903
(dp2904
g6
(dp2905
g48
S'_home_deanna_django-deanna_lib_python2_7_site-packages_Django-1_7_4-py2_7_egg_django_contrib_auth_apps.html'
p2906
sg50
S'/home/deanna/django-deanna/lib/python2.7/site-packages/Django-1.7.4-py2.7.egg/django/contrib/auth/apps'
p2907
sg52
g13
(g14
g15
NtRp2908
(dp2909
g18
I1
sg19
I0
sg20
I9
sg21
I0
sg22
I0
sg23
I0
sg24
I0
sbssg25
S'\x15\xf84\x94\xb2v\xc6!\x06\x96a\xf4\x86$\xd8N'
p2910
ssS'_home_deanna_django-deanna_lib_python2_7_site-packages_tastypie_cache'
p2911
(dp2912
g29
(dp2913
g8
S'_home_deanna_django-deanna_lib_python2_7_site-packages_tastypie_cache.html'
p2914
sg10
S'/home/deanna/django-deanna/lib/python2.7/site-packages/tastypie/cache'
p2915
sg12
g13
(g14
g15
NtRp2916
(dp2917
g18
I1
sg19
I0
sg20
I36
sg21
I0
sg22
I0
sg23
I19
sg24
I0
sbssg35
S'(\xbf\xe3\x98l\x10\x02U\xf5(\xfe\x16C\xf6\xb6\xcb'
p2918
sssS'version'
p2919
S'3.7.1'
p2920
sS'settings'
p2921
S'\x98\xa8x\xfe"r\xb5K\x98\xb1N\\\x99\x9e\xf3\xe5'
p2922
sS'format'
p2923
I1
s.